--- !tapi-tbd-v3
archs:                 [ armv7, armv7s, arm64, arm64e ]
platform:              ios
flags:                 [ flat_namespace ]
install-name:          /System/ExclaveKit/System/Library/PrivateFrameworks/CoreANSTKit.framework/CoreANSTKit
current-version:       1
compatibility-version: 1
objc-constraint:       retain_release
exports:
  - archs:                [ armv7, armv7s, arm64, arm64e ]
    symbols:              [ _$s11CoreANSTKitAAC10aneService10inputWidth0E6HeightAB18ANEExclaveServices0hD0C_s6UInt32VAJtcfC,
                            _$s11CoreANSTKitAAC10aneService10inputWidth0E6HeightAB18ANEExclaveServices0hD0C_s6UInt32VAJtcfCTj,
                            _$s11CoreANSTKitAAC10aneService10inputWidth0E6HeightAB18ANEExclaveServices0hD0C_s6UInt32VAJtcfCTq,
                            _$s11CoreANSTKitAAC10aneService10inputWidth0E6HeightAB18ANEExclaveServices0hD0C_s6UInt32VAJtcfc,
                            _$s11CoreANSTKitAAC11getRefInputSvyFTj,
                            _$s11CoreANSTKitAAC11getRefInputSvyFTq,
                            _$s11CoreANSTKitAAC11postProcess6output11focalLength6resultSb17ShareLibCommon_EK16MyBufferProtocol_p_Sf10ANSTCommon10ANSTResultVztFTj,
                            _$s11CoreANSTKitAAC11postProcess6output11focalLength6resultSb17ShareLibCommon_EK16MyBufferProtocol_p_Sf10ANSTCommon10ANSTResultVztFTq,
                            _$s11CoreANSTKitAAC12getRawResultSvyFTj,
                            _$s11CoreANSTKitAAC12getRawResultSvyFTq,
                            _$s11CoreANSTKitAAC14anstOutputSizes6UInt32VyFTj,
                            _$s11CoreANSTKitAAC14anstOutputSizes6UInt32VyFTq,
                            _$s11CoreANSTKitAAC15getRawResultExtSvyFTj,
                            _$s11CoreANSTKitAAC15getRawResultExtSvyFTq,
                            _$s11CoreANSTKitAAC16getRawReusltSizes6UInt32VyFTj,
                            _$s11CoreANSTKitAAC16getRawReusltSizes6UInt32VyFTq,
                            _$s11CoreANSTKitAAC17ShareLibCommon_EK14ExclaveSISPObjAAMc,
                            _$s11CoreANSTKitAAC17ShareLibCommon_EK26ReflectedStringConvertibleAAMc,
                            _$s11CoreANSTKitAAC19getRawReusltExtSizes6UInt32VyFTj,
                            _$s11CoreANSTKitAAC19getRawReusltExtSizes6UInt32VyFTq,
                            _$s11CoreANSTKitAAC4loadSbyFTj,
                            _$s11CoreANSTKitAAC4loadSbyFTq,
                            _$s11CoreANSTKitAAC4stop2chys6UInt32V_tFTj,
                            _$s11CoreANSTKitAAC4stop2chys6UInt32V_tFTq,
                            _$s11CoreANSTKitAAC5start2ch5width6heightSbs6UInt32V_A2HtFTj,
                            _$s11CoreANSTKitAAC5start2ch5width6heightSbs6UInt32V_A2HtFTq,
                            _$s11CoreANSTKitAAC6unloadSbyFTj,
                            _$s11CoreANSTKitAAC6unloadSbyFTq,
                            _$s11CoreANSTKitAAC7process5input6output11focalLength6resultSb17ShareLibCommon_EK16MyBufferProtocol_p_AhI_pSf10ANSTCommon10ANSTResultVztFTj,
                            _$s11CoreANSTKitAAC7process5input6output11focalLength6resultSb17ShareLibCommon_EK16MyBufferProtocol_p_AhI_pSf10ANSTCommon10ANSTResultVztFTq,
                            _$s11CoreANSTKitAACMa, _$s11CoreANSTKitAACMm,
                            _$s11CoreANSTKitAACMn, _$s11CoreANSTKitAACMo,
                            _$s11CoreANSTKitAACMu, _$s11CoreANSTKitAACN,
                            _$s11CoreANSTKitAACfD, _$s11CoreANSTKitAACfd,
                            _$s11CoreANSTKitAACs23CustomStringConvertibleAAMc,
                            _$s11CoreANSTKitAACs23CustomStringConvertibleAAWP,
                            _$s11CoreANSTLibAAC10AlogDeinityyF,
                            _$s11CoreANSTLibAAC10AlogDeinityyFTq,
                            _$s11CoreANSTLibAAC10PreProcess13lowthreadHoldS2b_tF,
                            _$s11CoreANSTLibAAC10PreProcess13lowthreadHoldS2b_tFTq,
                            _$s11CoreANSTLibAAC11PostProcess6netout8acResultSbSv_SvtF,
                            _$s11CoreANSTLibAAC11PostProcess6netout8acResultSbSv_SvtFTq,
                            _$s11CoreANSTLibAAC12getResultExtyySv_SvtF,
                            _$s11CoreANSTLibAAC12getResultExtyySv_SvtFTq,
                            _$s11CoreANSTLibAAC13convertResult6result3bufy10ANSTCommon10ANSTResultVz_SvtF,
                            _$s11CoreANSTLibAAC13convertResult6result3bufy10ANSTCommon10ANSTResultVz_SvtFTq,
                            _$s11CoreANSTLibAAC13originalWidthSfvpfi,
                            _$s11CoreANSTLibAAC14AlgoNetOutSizes6UInt32VyF,
                            _$s11CoreANSTLibAAC14AlgoNetOutSizes6UInt32VyFTq,
                            _$s11CoreANSTLibAAC14originalHeightSfvpfi,
                            _$s11CoreANSTLibAAC16AlogSizeOfResults6UInt32VyF,
                            _$s11CoreANSTLibAAC16AlogSizeOfResults6UInt32VyFTq,
                            _$s11CoreANSTLibAAC16AlogsetFrameInfo5width6height13originalWidth0H6Height11focalLengthSbs6UInt32V_A3JSftF,
                            _$s11CoreANSTLibAAC16AlogsetFrameInfo5width6height13originalWidth0H6Height11focalLengthSbs6UInt32V_A3JSftFTq,
                            _$s11CoreANSTLibAAC19AlogGetANSTOutNames5indexSSs6UInt32V_tF,
                            _$s11CoreANSTLibAAC19AlogGetANSTOutNames5indexSSs6UInt32V_tFTq,
                            _$s11CoreANSTLibAAC19AlogSizeOfResultExts6UInt32VyF,
                            _$s11CoreANSTLibAAC19AlogSizeOfResultExts6UInt32VyFTq,
                            _$s11CoreANSTLibAAC21AlgoGetRefInputBufferSvyF,
                            _$s11CoreANSTLibAAC21AlgoGetRefInputBufferSvyFTq,
                            _$s11CoreANSTLibAAC5widthSfvpfi,
                            _$s11CoreANSTLibAAC6heightSfvpfi,
                            _$s11CoreANSTLibAAC8AlgoInit5width6heightSbs6UInt32V_AGtF,
                            _$s11CoreANSTLibAAC8AlgoInit5width6heightSbs6UInt32V_AGtFTq,
                            _$s11CoreANSTLibAACABycfC,
                            _$s11CoreANSTLibAACABycfCTq,
                            _$s11CoreANSTLibAACABycfc, _$s11CoreANSTLibAACMa,
                            _$s11CoreANSTLibAACMm, _$s11CoreANSTLibAACMn,
                            _$s11CoreANSTLibAACN, _$s11CoreANSTLibAACfD,
                            _$s11CoreANSTLibAACfd,
                            _$s17ShareLibCommon_EK16MyBufferProtocolP11CoreANSTKitE03getF4Sizes6UInt32V5width_AG6heightAG6stridetSgyF,
                            _$s17ShareLibCommon_EK16MyBufferProtocolP11CoreANSTKitE12getEXSurfaceSo0K0CSgyF,
                            _AcANSTCallExtState, _AcANSTCreate, _AcANSTDestroy,
                            _AcANSTGetExtState, _AcANSTGetParams,
                            _AcANSTPostProcess,
                            _AcANSTPostProcessMultiNetOutputs, _AcANSTStart,
                            _AcANSTStop, _AcANSTUseLowThresholds, _AcCommitHash,
                            _AcV1CommitHash, _CoreANSTKitVersionNumber,
                            _CoreANSTKitVersionString, __Z10acFaceNullv,
                            __Z10bmSoftmax2ff, __Z10vectorNormPKfj,
                            __Z11acFaceResetR6AcFace,
                            __Z11bmVectorDotRK8BmBufferS1_,
                            __Z13acDetRectAreaRK9AcDetRect, __Z13acDetRectNullv,
                            __Z13acNMSFaceHeadPK9AcDetRectjPS_Rjf,
                            __Z13bmMatrixGeaddfRK8BmBufferfS1_RS_,
                            __Z14acDetRectWidthRK9AcDetRect,
                            __Z14acObjectToFaceRK8AcObject,
                            __Z14cosineDistancePKfS0_j,
                            __Z15acDetRectHeightRK9AcDetRect,
                            __Z16acDetRectCenterXRK9AcDetRect,
                            __Z16acDetRectCenterYRK9AcDetRect,
                            __Z16acDetRectOverlapRK9AcDetRectS1_,
                            __Z16acObjectFromFaceRK6AcFace,
                            __Z16acTrkGroupAssignP11AcTrkObjectjS0_j18sCIspAcDetCategoryS1_RK22AcTrkGroupAssignParamsRjP22AcTrkGroupTemporalInfoS5_Phj,
                            __Z16acTrkProcGroupIDPK11AcTrkObjectjS1_jS1_jPKjS3_S3_S3_S3_S3_PjS4_S4_Rj,
                            __Z16bmActivationTanhPfjjj, __Z16bmActivationTanhf,
                            __Z16bmMatrixGemmA1B1PKfjjS0_jPf,
                            __Z16bmMatrixGemmA1B1RK8BmBufferS1_RS_,
                            __Z16bmVectorDotBatchPKfjjS0_jPf,
                            __Z16bmVectorDotBatchRK8BmBufferS1_RS_,
                            __Z17acAssoPostProcessP13AcANSTContextPK13AcANSTControl8BmBufferP8AcResultP11AcANSTState,
                            __Z17acCheckOverlapBoxP9AcDetRectjS_ff,
                            __Z17acClassASuppressBPK9AcDetRectjPS_Rjf,
                            __Z17acDetRectFromFaceRK6AcFace,
                            __Z17acISPCatToExclave18sCIspAcDetCategory,
                            __Z17bmBufferResizeCHWRK8BmBuffer18BmBufferResizeModejRS_,
                            __Z17bmMatrixSubMatrixPKvjjjjjjjjRPvRjS3_,
                            __Z17bmMatrixSubMatrixRK8BmBufferjjjj,
                            __Z18acDetRectIntersectRK9AcDetRectS1_,
                            __Z18acFaceInternalNullv,
                            __Z18acMemBlockCoalesceP10AcMemBlockj,
                            __Z18acTrkObjectAgeCompPKvS0_,
                            __Z18acTrkObjectPickDetjjP11AcTrkObjectjjPK14AcFaceInternaljPjRjP22AcTrkObjectDetPriorityjS4_jbj,
                            __Z18bmMunkresTempBytesj,
                            __Z18updateEmbeddedFeatPKfPfjb,
                            __Z18vectorScaleInPlacePffj,
                            __Z19acFaceInternalResetR14AcFaceInternal,
                            __Z19acGenealizedOverlapRK9AcDetRectS1_,
                            __Z19acNonMaxSuppressionP9AcDetRectjffPij,
                            __Z19acTrkObjectPriorityjjRK14AcFaceInternal,
                            __Z19acTrkTermClassIndex18sCIspAcDetCategory,
                            __Z19bmActivationSigmoidPKajjjfPhj,
                            __Z19bmActivationSigmoidPfjjj,
                            __Z19bmActivationSigmoidf,
                            __Z19pythonModuloForAssoii,
                            __Z20acDetRectSizeComparePKvS0_,
                            __Z20acFaceInternalToFaceRK14AcFaceInternal,
                            __Z20acRemoveOverlapBoxesP9AcDetRectjfPhj,
                            __Z20acTrkHandAssocTrkDetjjP11AcTrkObjectjjP14AcFaceInternaljRK22AcTrkObjectAssocParamsRK21AcSlowBootAccocParamsRjS9_S9_P17AcTentativeObjectS9_PKfPKiPKS_jPhj,
                            __Z20acTrkObjectRearrangeP11AcTrkObjectPKjPhj,
                            __Z21acDetRectClassComparePKvS0_,
                            __Z21acDetRectScoreComparePKvS0_,
                            __Z21mapBoxCenterToFeatMapRK6AcRectRK8BmBufferjjjRf,
                            __Z22acCheckHeadOverlapFacePK9AcDetRectjS_f,
                            __Z22acDetRectFilterByScoreP9AcDetRectjPf,
                            __Z22acSmallestEnclosingBoxRK9AcDetRectS1_,
                            __Z22acTrkObjectAssocTrkDetjjP11AcTrkObjectjjP14AcFaceInternaljRK22AcTrkObjectAssocParamsRK21AcSlowBootAccocParamsRjS9_S9_P17AcTentativeObjectS9_PKfPKibPhj,
                            __Z23AcTrkObjectGroupIdCountPK11AcTrkObjectjPj,
                            __Z23acCheckOverlapBoxNormalPK9AcDetRectjS_f,
                            __Z23acNonMaxSuppressionHandP9AcDetRectjff,
                            __Z23acTrkObjectRemoveKilledP11AcTrkObjectj19AcTrkObjectKillFlag,
                            __Z23bmMatrixGemmPrearrangeAPfjjjS_,
                            __Z23bmMatrixGemmPrearrangeAR8BmBufferjS0_,
                            __Z24acDetRectOverlapFirstBoxRK9AcDetRectS1_,
                            __Z24acDetRectOverlapSmallboxRK9AcDetRectS1_,
                            __Z24acMemBlockCoalesceNoSortP10AcMemBlockj,
                            __Z24acObjectFromFaceInternalRK14AcFaceInternal,
                            __Z24acRectIntersectOverUnionRK6AcRectS1_,
                            __Z24acRemoveHeadOverlapBoxesP9AcDetRectjfPhj,
                            __Z24acTrkFullBodyAssocTrkDetjj18AcImageOrientationP11AcTrkObjectjjP14AcFaceInternaljRK22AcTrkObjectAssocParamsRK21AcSlowBootAccocParamsRjSA_SA_P17AcTentativeObjectSA_PKfPKiS3_jPhj,
                            __Z24acTrkGroupCheckNewArgminPKfjjjjPj,
                            __Z24acTrkObjectSquezeCostMatPKfjfPfRjP17AcTrkMappingIndexS2_S4_S2_,
                            __Z24bmBufferPartialResizeCHWRK8BmBuffer18BmBufferResizeModejjjjjRS_,
                            __Z24bmMatrixElemwiseMultA1B0PKfjjjS0_jPfj,
                            __Z24bmMatrixElemwiseMultA1B0RK8BmBufferS1_RS_,
                            __Z24bmMatrixElemwiseMultA1B1PKfjjjS0_jPfj,
                            __Z24bmMatrixElemwiseMultA1B1RK8BmBufferS1_RS_,
                            __Z25acDetRectFromFaceInternalRK14AcFaceInternal,
                            __Z25acDetRectOverlapSecondBoxRK9AcDetRectS1_,
                            __Z25acTrkGroupAssignTempBytesj,
                            __Z25acTrkObectSurplusExchangePKjPj,
                            __Z25acTrkObjectAgeCompReversePKvS0_,
                            __Z26bmBufferResizeCoordConvertjjjj17BmBufferResizePadffRfS0_,
                            __Z27acFbodyHlogitSuppressLlogitPK9AcDetRectjPS_Rjff,
                            __Z27acNonMaxSuppressionFirstBoxP9AcDetRectjf,
                            __Z27acNonMaxSuppressionPerClassP9AcDetRectjffPij,
                            __Z27acNonMaxSuppressionSmallBoxP9AcDetRectjf,
                            __Z27acTrkGroupTemporalInfoResetR22AcTrkGroupTemporalInfo,
                            __Z27bmVectorDotBatchPrearrangeVPfjjjS_,
                            __Z27bmVectorDotBatchPrearrangeVR8BmBufferjS0_,
                            __Z28acCheckOverlapSecondFullBodyPK9AcDetRectjS_ff,
                            __Z28acDetRectClassCompareReversePKvS0_,
                            __Z28acFilterMultiFaceinSameUbodyP11AcTrkObjectjP9AcDetRectPK14AcFaceInternalPjRjPKfS6_jj,
                            __Z28acNonMaxSuppressionHandIntraP9AcDetRectjffbfS0_jj,
                            __Z28acTrkCategoryLimitationIndex18sCIspAcDetCategory,
                            __Z28acTrkFilterFPHandinSameFbodyPK11AcTrkObjectjS1_jPS_jf,
                            __Z29acTrkLabelCenterSizeSmoothingR11AcTrkObjectR14AcFaceInternalPKS_jRK22AcTrkObjectAssocParamsjjjRfS8_S8_S8_,
                            __Z30acTrkGroupAssignGetTempBuffersjPhjP21AcTrkGroupTempBuffers,
                            __Z30largeFaceSuppressSameSizeUBodyP11AcTrkObjectjjjPjS1_,
                            __Z31acTrkObjectAssocTrkDetTempBytesj,
                            __Z32acTrkFacialAttrTemporalSmoothingR11AcTrkObject14AcFaceInternalfiRK22AcTrkObjectAssocParamsjj,
                            __Z32acTrkFilterMultiUbodyinSameFbodyP11AcTrkObjectRjS0_jPKfPjS1_S4_,
                            __Z32acTrkObjectRestoreMatchedTrkIndsPKjPK17AcTrkMappingIndexS3_jPjj,
                            __Z33acTrkObjectRectIntersectOverUnionRK6AcRectS1_f,
                            __Z33acTrkObjectSquezeCostMatCenterDisPK11AcTrkObjectPKfjfPfRjP17AcTrkMappingIndexS5_S7_S5_,
                            __Z34acTrkHandRemoveYoungOverlapObjectsP11AcTrkObjectjfjjf,
                            __Z34acTrkObjectRemoveOldOverlapObjectsP11AcTrkObjectjfPj,
                            __Z34bmBufferResizeCoordConvertReversedjjjj17BmBufferResizePadffRfS0_,
                            __Z35acTrkObjectRectIntersectOverSmallerRK6AcRectS1_f,
                            __Z36acTrkCheckBoxCornerNearImageBoundary6AcRectjj,
                            __Z36acTrkObjectAssocTrkDetGetTempBuffersjPhjP22AcTrkObjectTempBuffers,
                            __Z36acTrkObjectRemoveYoungOverlapObjectsP11AcTrkObjectjfPj,
                            __Z38acTrkFullBodyRemoveYoungOverlapObjectsP11AcTrkObjectjf,
                            __Z44acTrkObjectRemoveOldCrossClassOverlapObjectsP11AcTrkObjectjf,
                            __Z6bmCeilf, __Z6l2NormPKfj, __Z7bmClampfff,
                            __Z7bmClampiii, __Z8bmArgMaxPKajj, __Z9bmMaximumff,
                            __Z9bmMaximumii, __Z9bmMaximumjj, __Z9bmMinimumff,
                            __Z9bmMinimumii, __Z9bmMinimumjj,
                            __Z9bmMunkresPfjPhjPjjS1_, __Z9bmSoftmaxPKfPfj,
                            __Z9bmSoftmaxPKfPfjj, __Z9vectorAddPKffS0_fPfj,
                            __ZN10AcAssoNode12clipANSTBboxE11AcTrkObjectjj,
                            __ZN10AcAssoNode18associationPreProcEjj18AcImageOrientationPK14AcFaceInternaljjR15AcAssoNodeState,
                            __ZN10AcAssoNode19associationPostProcEjjjRK8BmBufferR15AcAssoNodeStatePK14AcFaceInternaljP8AcResult,
                            __ZN10AcAssoNode19detUseLowThresholdsEb,
                            __ZN10AcAssoNode21handGroupIdProcessingER15AcAssoNodeState,
                            __ZN10AcAssoNode22m_kFacePoseRollCentersE,
                            __ZN10AcAssoNode7restartER15AcAssoNodeState,
                            __ZN10AcAssoNode8sec_initEPK13AcANSTControlR15AcAssoNodeState,
                            __ZN10AcAssoNodeC1ER15AcAssoNodeState,
                            __ZN10AcAssoNodeC2ER15AcAssoNodeState,
                            __ZN10AcAssoNodeD1Ev, __ZN10AcAssoNodeD2Ev,
                            __ZN14BmMixedBufSizeC1Ev, __ZN14BmMixedBufSizeC2Ev,
                            __ZN9AcDetNode11postProcessEPK8BmBufferjPK13AcANSTControlR14AcDetNodeStateP14AcFaceInternalRj,
                            __ZN9AcDetNode14postProcessDetEPK8BmBufferjPK13AcANSTControlR14AcDetNodeStateP14AcFaceInternalRj,
                            __ZN9AcDetNode15postProcessHandEPK8BmBufferjR14AcDetNodeStateP14AcFaceInternalRj,
                            __ZN9AcDetNode16useLowThresholdsEb,
                            __ZN9AcDetNode21generateFCOSLocationsEjjjPfS0_,
                            __ZN9AcDetNode21m_kFacePoseYawCentersE,
                            __ZN9AcDetNode22m_kFacePoseRollCentersE,
                            __ZN9AcDetNode24internalUseLowThresholdsEb,
                            __ZN9AcDetNode4initEPK15AcDetNodeConfigR14AcDetNodeStatePK13AcANSTControl,
                            __ZN9AcDetNodeC1ER14AcDetNodeState,
                            __ZN9AcDetNodeC2ER14AcDetNodeState,
                            __ZN9AcDetNodeD1Ev, __ZN9AcDetNodeD2Ev,
                            __ZNK10AcAssoNode6configEv,
                            __ZNK10AcAssoNode9getParamsERK15AcAssoNodeStateR12AcANSTParams,
                            __ZNK9AcDetNode9getParamsERK14AcDetNodeStateR12AcANSTParams,
                            _acc, _anstAlgoInit, _anstAlgoNetOutSize,
                            _anstAlogDeinit, _anstAlogGetANSTOutNames,
                            _anstAlogNumOfFaces, _anstAlogSizeOfResult,
                            _anstAlogsetFrameInfo, _anstPostProcess,
                            _anstPreProcess, _blaslite_lstm_gemm_pre_arrange_W,
                            _blaslite_lstm_sdot_arm64,
                            _blaslite_lstm_sdot_pre_arrange_V,
                            _blaslite_lstm_sgemm_arm64, _bmHeapsort, _bmQsort,
                            _bmVectorDotCore, _getACResultExt, _getACReusltExtSize,
                            _getRefInput, _getRefNetout,
                            _kAcAssoNodeConfigDefaultRawData,
                            _kAcAssoNodeConfigDefaultRawData_len,
                            _kAcDetNodeConfigDefaultRawData,
                            _kAcDetNodeConfigDefaultRawData_len,
                            _lite_sgemm_compute_block_4x8x2_arm64 ]
...
