--- !tapi-tbd-v3
archs:                 [ armv7, armv7s, arm64, arm64e ]
platform:              ios
flags:                 [ flat_namespace ]
install-name:          /System/ExclaveKit/System/Library/PrivateFrameworks/Espresso.framework/Espresso
current-version:       123
compatibility-version: 1
objc-constraint:       retain_release
exports:
  - archs:                [ armv7, armv7s, arm64, arm64e ]
    symbols:              [ _$s18E5RTComputeRuntime10AneIOArrayC09m_requestE0Say18ANEExclaveServices12ANERequestIOCGvpfi,
                            _$s18E5RTComputeRuntime10AneIOArrayC5AddIO7surface5indexySo9EXSurfaceC_s6UInt32VtF,
                            _$s18E5RTComputeRuntime10AneIOArrayC5AddIO7surface5indexySo9EXSurfaceC_s6UInt32VtFTq,
                            _$s18E5RTComputeRuntime10AneIOArrayC5ResetyyF,
                            _$s18E5RTComputeRuntime10AneIOArrayC5ResetyyFTq,
                            _$s18E5RTComputeRuntime10AneIOArrayC6lengthACSi_tcfC,
                            _$s18E5RTComputeRuntime10AneIOArrayC6lengthACSi_tcfCTq,
                            _$s18E5RTComputeRuntime10AneIOArrayC6lengthACSi_tcfc,
                            _$s18E5RTComputeRuntime10AneIOArrayCACycfC,
                            _$s18E5RTComputeRuntime10AneIOArrayCACycfc,
                            _$s18E5RTComputeRuntime10AneIOArrayCMa,
                            _$s18E5RTComputeRuntime10AneIOArrayCMn,
                            _$s18E5RTComputeRuntime10AneIOArrayCN,
                            _$s18E5RTComputeRuntime10AneIOArrayCfD,
                            _$s18E5RTComputeRuntime15AneModelWrapperC19InputIndexForSymbol6symbolSiSS_tF,
                            _$s18E5RTComputeRuntime15AneModelWrapperC19InputIndexForSymbol6symbolSiSS_tFTq,
                            _$s18E5RTComputeRuntime15AneModelWrapperC20OutputIndexForSymbol6symbolSiSS_tF,
                            _$s18E5RTComputeRuntime15AneModelWrapperC20OutputIndexForSymbol6symbolSiSS_tFTq,
                            _$s18E5RTComputeRuntime15AneModelWrapperC5modelAC18ANEExclaveServices8ANEModelC_tcfC,
                            _$s18E5RTComputeRuntime15AneModelWrapperC5modelAC18ANEExclaveServices8ANEModelC_tcfCTq,
                            _$s18E5RTComputeRuntime15AneModelWrapperC5modelAC18ANEExclaveServices8ANEModelC_tcfc,
                            _$s18E5RTComputeRuntime15AneModelWrapperC9GetHandles6UInt64VyF,
                            _$s18E5RTComputeRuntime15AneModelWrapperC9GetHandles6UInt64VyFTq,
                            _$s18E5RTComputeRuntime15AneModelWrapperCACycfC,
                            _$s18E5RTComputeRuntime15AneModelWrapperCACycfc,
                            _$s18E5RTComputeRuntime15AneModelWrapperCMa,
                            _$s18E5RTComputeRuntime15AneModelWrapperCMn,
                            _$s18E5RTComputeRuntime15AneModelWrapperCN,
                            _$s18E5RTComputeRuntime15AneModelWrapperCfD,
                            _$s18E5RTComputeRuntime19ANEExclaveInterfaceC10capabilityACSgSu_tcfC,
                            _$s18E5RTComputeRuntime19ANEExclaveInterfaceC10capabilityACSgSu_tcfCTq,
                            _$s18E5RTComputeRuntime19ANEExclaveInterfaceC10capabilityACSgSu_tcfc,
                            _$s18E5RTComputeRuntime19ANEExclaveInterfaceC11UnloadModel5modelSbAA03AneG7WrapperC_tF,
                            _$s18E5RTComputeRuntime19ANEExclaveInterfaceC11UnloadModel5modelSbAA03AneG7WrapperC_tFTq,
                            _$s18E5RTComputeRuntime19ANEExclaveInterfaceC13MapEXSurfaces5model7ioArraySbAA15AneModelWrapperC_AA0K7IOArrayCtF,
                            _$s18E5RTComputeRuntime19ANEExclaveInterfaceC13MapEXSurfaces5model7ioArraySbAA15AneModelWrapperC_AA0K7IOArrayCtFTq,
                            _$s18E5RTComputeRuntime19ANEExclaveInterfaceC15UnmapEXSurfaces5modelSbAA15AneModelWrapperC_tF,
                            _$s18E5RTComputeRuntime19ANEExclaveInterfaceC15UnmapEXSurfaces5modelSbAA15AneModelWrapperC_tFTq,
                            _$s18E5RTComputeRuntime19ANEExclaveInterfaceC7pointerACSgSV_tcfC,
                            _$s18E5RTComputeRuntime19ANEExclaveInterfaceC7pointerACSgSV_tcfCTq,
                            _$s18E5RTComputeRuntime19ANEExclaveInterfaceC7pointerACSgSV_tcfc,
                            _$s18E5RTComputeRuntime19ANEExclaveInterfaceC8Evaluate5model8inputIOs06outputI0s6UInt64VAA15AneModelWrapperC_AA0L7IOArrayCAMtF,
                            _$s18E5RTComputeRuntime19ANEExclaveInterfaceC8Evaluate5model8inputIOs06outputI0s6UInt64VAA15AneModelWrapperC_AA0L7IOArrayCAMtFTq,
                            _$s18E5RTComputeRuntime19ANEExclaveInterfaceC9LoadModel3urlAA03AneG7WrapperCSgSS_tF,
                            _$s18E5RTComputeRuntime19ANEExclaveInterfaceC9LoadModel3urlAA03AneG7WrapperCSgSS_tFTq,
                            _$s18E5RTComputeRuntime19ANEExclaveInterfaceCACycfC,
                            _$s18E5RTComputeRuntime19ANEExclaveInterfaceCACycfc,
                            _$s18E5RTComputeRuntime19ANEExclaveInterfaceCMa,
                            _$s18E5RTComputeRuntime19ANEExclaveInterfaceCMn,
                            _$s18E5RTComputeRuntime19ANEExclaveInterfaceCN,
                            _$s18E5RTComputeRuntime19ANEExclaveInterfaceCfD,
                            __ZN12E5RT_Private14StepStreamSyncENSt3__110shared_ptrIN4E5RT15ExecutionStreamEEENS0_8functionIFvvEEE,
                            __ZN12E5RT_Private20GetMaxPortDescriptorENSt3__110shared_ptrIKN4E5RT6IOPortEEE,
                            __ZN12E5RT_Private20SetMaxPortDescriptorENSt3__110shared_ptrIN4E5RT6IOPortEEENS1_IKNS2_17OperandDescriptorEEE,
                            __ZN12E5RT_Private32SetANEExecutionPriorityForStreamENSt3__110shared_ptrIN4E5RT15ExecutionStreamEEENS2_20ANEExecutionPriorityE,
                            __ZN12E5RT_Private33GetE5BundlePathFromProgramLibraryERKN4E5RT14ProgramLibraryE,
                            __ZN4E5RT10AsyncEvent20SetActiveFutureValueEy,
                            __ZN4E5RT10AsyncEvent6SignalEy,
                            __ZN4E5RT10AsyncEventC1ENSt3__110unique_ptrINS_14AsyncEventImplENS1_14default_deleteIS3_EEEE,
                            __ZN4E5RT10AsyncEventC2ENSt3__110unique_ptrINS_14AsyncEventImplENS1_14default_deleteIS3_EEEE,
                            __ZN4E5RT10AsyncEventD0Ev, __ZN4E5RT10AsyncEventD1Ev,
                            __ZN4E5RT10AsyncEventD2Ev,
                            __ZN4E5RT10E5Compiler11GetCompilerEv,
                            __ZN4E5RT10E5Compiler12MakeCompilerERKNS_23E5CompilerConfigOptionsE,
                            __ZN4E5RT10E5Compiler20IsNewCompileRequiredERKNSt3__112basic_stringIcNS1_11char_traitsIcEENS1_9allocatorIcEEEERKNS_17E5CompilerOptionsE,
                            __ZN4E5RT10E5Compiler27PurgeE5BundlesForInputModelERKNSt3__112basic_stringIcNS1_11char_traitsIcEENS1_9allocatorIcEEEE,
                            __ZN4E5RT10E5Compiler7CompileERKN3MIL9IRProgramERKNS_17E5CompilerOptionsE,
                            __ZN4E5RT10E5Compiler7CompileERKNSt3__112basic_stringIcNS1_11char_traitsIcEENS1_9allocatorIcEEEERKNS_17E5CompilerOptionsE,
                            __ZN4E5RT10E5CompilerC1ERKNS_23E5CompilerConfigOptionsE,
                            __ZN4E5RT10E5CompilerC2ERKNS_23E5CompilerConfigOptionsE,
                            __ZN4E5RT10E5CompilerD0Ev, __ZN4E5RT10E5CompilerD1Ev,
                            __ZN4E5RT10E5CompilerD2Ev,
                            __ZN4E5RT10TensorCastIDF16_aEEvRKNS_16TensorDescriptorERNS_12BufferObjectES3_RKS4_,
                            __ZN4E5RT10TensorCastIDF16_fEEvRKNS_16TensorDescriptorERNS_12BufferObjectES3_RKS4_,
                            __ZN4E5RT10TensorCastIDF16_hEEvRKNS_16TensorDescriptorERNS_12BufferObjectES3_RKS4_,
                            __ZN4E5RT10TensorCastIDF16_iEEvRKNS_16TensorDescriptorERNS_12BufferObjectES3_RKS4_,
                            __ZN4E5RT10TensorCastIDF16_jEEvRKNS_16TensorDescriptorERNS_12BufferObjectES3_RKS4_,
                            __ZN4E5RT10TensorCastIDF16_sEEvRKNS_16TensorDescriptorERNS_12BufferObjectES3_RKS4_,
                            __ZN4E5RT10TensorCastIDF16_tEEvRKNS_16TensorDescriptorERNS_12BufferObjectES3_RKS4_,
                            __ZN4E5RT10TensorCastIaDF16_EEvRKNS_16TensorDescriptorERNS_12BufferObjectES3_RKS4_,
                            __ZN4E5RT10TensorCastIafEEvRKNS_16TensorDescriptorERNS_12BufferObjectES3_RKS4_,
                            __ZN4E5RT10TensorCastIfDF16_EEvRKNS_16TensorDescriptorERNS_12BufferObjectES3_RKS4_,
                            __ZN4E5RT10TensorCastIfaEEvRKNS_16TensorDescriptorERNS_12BufferObjectES3_RKS4_,
                            __ZN4E5RT10TensorCastIfhEEvRKNS_16TensorDescriptorERNS_12BufferObjectES3_RKS4_,
                            __ZN4E5RT10TensorCastIfiEEvRKNS_16TensorDescriptorERNS_12BufferObjectES3_RKS4_,
                            __ZN4E5RT10TensorCastIfjEEvRKNS_16TensorDescriptorERNS_12BufferObjectES3_RKS4_,
                            __ZN4E5RT10TensorCastIfsEEvRKNS_16TensorDescriptorERNS_12BufferObjectES3_RKS4_,
                            __ZN4E5RT10TensorCastIftEEvRKNS_16TensorDescriptorERNS_12BufferObjectES3_RKS4_,
                            __ZN4E5RT10TensorCastIhDF16_EEvRKNS_16TensorDescriptorERNS_12BufferObjectES3_RKS4_,
                            __ZN4E5RT10TensorCastIhfEEvRKNS_16TensorDescriptorERNS_12BufferObjectES3_RKS4_,
                            __ZN4E5RT10TensorCastIiDF16_EEvRKNS_16TensorDescriptorERNS_12BufferObjectES3_RKS4_,
                            __ZN4E5RT10TensorCastIifEEvRKNS_16TensorDescriptorERNS_12BufferObjectES3_RKS4_,
                            __ZN4E5RT10TensorCastIjDF16_EEvRKNS_16TensorDescriptorERNS_12BufferObjectES3_RKS4_,
                            __ZN4E5RT10TensorCastIjfEEvRKNS_16TensorDescriptorERNS_12BufferObjectES3_RKS4_,
                            __ZN4E5RT10TensorCastIsDF16_EEvRKNS_16TensorDescriptorERNS_12BufferObjectES3_RKS4_,
                            __ZN4E5RT10TensorCastIsfEEvRKNS_16TensorDescriptorERNS_12BufferObjectES3_RKS4_,
                            __ZN4E5RT10TensorCastItDF16_EEvRKNS_16TensorDescriptorERNS_12BufferObjectES3_RKS4_,
                            __ZN4E5RT10TensorCastItfEEvRKNS_16TensorDescriptorERNS_12BufferObjectES3_RKS4_,
                            __ZN4E5RT12BufferObject11AllocMemoryEmNS_10BufferTypeE,
                            __ZN4E5RT12BufferObject11GetDataSpanEv,
                            __ZN4E5RT12BufferObject17CreateBufferAliasEmm,
                            __ZN4E5RT12BufferObject22CreateBufferFromHandleINS_25HeapAllocatedBufferHandleEEENSt3__110unique_ptrIS0_NS3_14default_deleteIS0_EEEET_,
                            __ZN4E5RT12BufferObject22CreateBufferFromHandleIU8__strongP9EXSurfaceEENSt3__110unique_ptrIS0_NS5_14default_deleteIS0_EEEET_,
                            __ZN4E5RT12BufferObject9GetHandleINS_25HeapAllocatedBufferHandleEEET_v,
                            __ZN4E5RT12BufferObject9GetHandleIU8__strongP9EXSurfaceEET_v,
                            __ZN4E5RT12BufferObjectC1ENSt3__110unique_ptrINS_16BufferObjectImplENS1_14default_deleteIS3_EEEE,
                            __ZN4E5RT12BufferObjectC1Ev,
                            __ZN4E5RT12BufferObjectC2ENSt3__110unique_ptrINS_16BufferObjectImplENS1_14default_deleteIS3_EEEE,
                            __ZN4E5RT12BufferObjectC2Ev,
                            __ZN4E5RT12BufferObjectD0Ev,
                            __ZN4E5RT12BufferObjectD1Ev,
                            __ZN4E5RT12BufferObjectD2Ev,
                            __ZN4E5RT12MemoryObject11TryAsBufferEv,
                            __ZN4E5RT12MemoryObject12TryAsSurfaceEv,
                            __ZN4E5RT12MemoryObject6BufferEv,
                            __ZN4E5RT12MemoryObject7SurfaceEv,
                            __ZN4E5RT12MemoryObjectC1Ev,
                            __ZN4E5RT12MemoryObjectC2Ev,
                            __ZN4E5RT12MemoryObjectD0Ev,
                            __ZN4E5RT12MemoryObjectD1Ev,
                            __ZN4E5RT12MemoryObjectD2Ev,
                            __ZN4E5RT13ComputeDevice29GetAllAvailableComputeDevicesEv,
                            __ZN4E5RT13ComputeDeviceC1Ev,
                            __ZN4E5RT13ComputeDeviceC2Ev,
                            __ZN4E5RT13ComputeDeviceD0Ev,
                            __ZN4E5RT13ComputeDeviceD1Ev,
                            __ZN4E5RT13ComputeDeviceD2Ev,
                            __ZN4E5RT13ConfigOptionsC1ENSt3__110unique_ptrINS_17ConfigOptionsImplENS1_14default_deleteIS3_EEEE,
                            __ZN4E5RT13ConfigOptionsC1Ev,
                            __ZN4E5RT13ConfigOptionsC2ENSt3__110unique_ptrINS_17ConfigOptionsImplENS1_14default_deleteIS3_EEEE,
                            __ZN4E5RT13ConfigOptionsC2Ev,
                            __ZN4E5RT13ConfigOptionsD0Ev,
                            __ZN4E5RT13ConfigOptionsD1Ev,
                            __ZN4E5RT13ConfigOptionsD2Ev,
                            __ZN4E5RT13ConfigOptionsaSERKS0_,
                            __ZN4E5RT13SurfaceObject12AllocSurfaceERKNS_17SurfaceDescriptorENS_11SurfaceTypeE,
                            __ZN4E5RT13SurfaceObjectC1ENSt3__110unique_ptrINS_17SurfaceObjectImplENS1_14default_deleteIS3_EEEE,
                            __ZN4E5RT13SurfaceObjectC1Ev,
                            __ZN4E5RT13SurfaceObjectC2ENSt3__110unique_ptrINS_17SurfaceObjectImplENS1_14default_deleteIS3_EEEE,
                            __ZN4E5RT13SurfaceObjectC2Ev,
                            __ZN4E5RT13SurfaceObjectD0Ev,
                            __ZN4E5RT13SurfaceObjectD1Ev,
                            __ZN4E5RT13SurfaceObjectD2Ev,
                            __ZN4E5RT14ExecuteOptions19SharedDefaultOptionEv,
                            __ZN4E5RT14ExecuteOptions22SetExecutionIdentifierERKNSt3__112basic_stringIcNS1_11char_traitsIcEENS1_9allocatorIcEEEE,
                            __ZN4E5RT14ExecuteOptions26SetEnableResourceTelemetryEb,
                            __ZN4E5RT14ExecuteOptions6CreateEv,
                            __ZN4E5RT14ExecuteOptionsC1Ev,
                            __ZN4E5RT14ExecuteOptionsC2Ev,
                            __ZN4E5RT14ExecuteOptionsD0Ev,
                            __ZN4E5RT14ExecuteOptionsD1Ev,
                            __ZN4E5RT14ExecuteOptionsD2Ev,
                            __ZN4E5RT14ExecuteOptionsaSERKS0_,
                            __ZN4E5RT14ProgramLibrary11OpenLibraryERKNSt3__112basic_stringIcNS1_11char_traitsIcEENS1_9allocatorIcEEEE,
                            __ZN4E5RT14ProgramLibrary14GetFunctionRefERKNSt3__112basic_stringIcNS1_11char_traitsIcEENS1_9allocatorIcEEEE,
                            __ZN4E5RT14ProgramLibrary20GetExportedFunctionsEv,
                            __ZN4E5RT14ProgramLibraryC1ENSt3__110unique_ptrINS_18ProgramLibraryImplENS1_14default_deleteIS3_EEEE,
                            __ZN4E5RT14ProgramLibraryC1Ev,
                            __ZN4E5RT14ProgramLibraryC2ENSt3__110unique_ptrINS_18ProgramLibraryImplENS1_14default_deleteIS3_EEEE,
                            __ZN4E5RT14ProgramLibraryC2Ev,
                            __ZN4E5RT14ProgramLibraryD0Ev,
                            __ZN4E5RT14ProgramLibraryD1Ev,
                            __ZN4E5RT14ProgramLibraryD2Ev,
                            __ZN4E5RT14TensorDataType20ValidateDataTypeSpecENS_17ComponentDataTypeENS_13ComponentPackE,
                            __ZN4E5RT14TensorDataType4ImplC1ENS_17ComponentDataTypeENS_13ComponentPackEb,
                            __ZN4E5RT14TensorDataType4ImplC1EOS1_,
                            __ZN4E5RT14TensorDataType4ImplC1ERKS1_,
                            __ZN4E5RT14TensorDataType4ImplC2ENS_17ComponentDataTypeENS_13ComponentPackEb,
                            __ZN4E5RT14TensorDataType4ImplC2EOS1_,
                            __ZN4E5RT14TensorDataType4ImplC2ERKS1_,
                            __ZN4E5RT14TensorDataType4ImplD1Ev,
                            __ZN4E5RT14TensorDataType4ImplD2Ev,
                            __ZN4E5RT14TensorDataTypeC1ENS_17ComponentDataTypeENS_13ComponentPackE,
                            __ZN4E5RT14TensorDataTypeC1EOS0_,
                            __ZN4E5RT14TensorDataTypeC1ERKS0_,
                            __ZN4E5RT14TensorDataTypeC2ENS_17ComponentDataTypeENS_13ComponentPackE,
                            __ZN4E5RT14TensorDataTypeC2EOS0_,
                            __ZN4E5RT14TensorDataTypeC2ERKS0_,
                            __ZN4E5RT14TensorDataTypeD0Ev,
                            __ZN4E5RT14TensorDataTypeD1Ev,
                            __ZN4E5RT14TensorDataTypeD2Ev,
                            __ZN4E5RT14TensorQuantizeERKNS_16TensorDescriptorERNS_12BufferObjectES2_RKS3_f,
                            __ZN4E5RT15AreTensorsEqualERKNS_16TensorDescriptorERKNS_12BufferObjectES2_S5_,
                            __ZN4E5RT15ExecutionStream11AsyncSubmitENSt3__18functionIFvyyEEE,
                            __ZN4E5RT15ExecutionStream11ResetStreamEv,
                            __ZN4E5RT15ExecutionStream15EncodeOperationENSt3__110shared_ptrINS_24ExecutionStreamOperationEEE,
                            __ZN4E5RT15ExecutionStream16SetConfigOptionsENSt3__110unique_ptrINS_28ExecutionStreamConfigOptionsENS1_14default_deleteIS3_EEEE,
                            __ZN4E5RT15ExecutionStream17ExecuteStreamSyncERKNS_14ExecuteOptionsE,
                            __ZN4E5RT15ExecutionStream17ExecuteStreamSyncEv,
                            __ZN4E5RT15ExecutionStream17SubmitStreamAsyncENSt3__18functionIFvyyNS1_10unique_ptrINS_9E5RTErrorENS1_14default_deleteIS4_EEEEEEE,
                            __ZN4E5RT15ExecutionStream18ResetConfigOptionsEv,
                            __ZN4E5RT15ExecutionStream21CreateExecutionStreamEv,
                            __ZN4E5RT15ExecutionStream21EncodeComputeWorkloadENSt3__110shared_ptrINS_15ProgramFunctionEEE,
                            __ZN4E5RT15ExecutionStream23PreWireInUseAllocationsEv,
                            __ZN4E5RT15ExecutionStream30CreateExecutionStreamSharedPtrEv,
                            __ZN4E5RT15ExecutionStreamC1ENSt3__110unique_ptrINS_19ExecutionStreamImplENS1_14default_deleteIS3_EEEE,
                            __ZN4E5RT15ExecutionStreamC1Ev,
                            __ZN4E5RT15ExecutionStreamC2ENSt3__110unique_ptrINS_19ExecutionStreamImplENS1_14default_deleteIS3_EEEE,
                            __ZN4E5RT15ExecutionStreamC2Ev,
                            __ZN4E5RT15ExecutionStreamD0Ev,
                            __ZN4E5RT15ExecutionStreamD1Ev,
                            __ZN4E5RT15ExecutionStreamD2Ev,
                            __ZN4E5RT15TensorDimensionC1Ev,
                            __ZN4E5RT15TensorDimensionC2Ev,
                            __ZN4E5RT15TensorDimensionD0Ev,
                            __ZN4E5RT15TensorDimensionD1Ev,
                            __ZN4E5RT15TensorDimensionD2Ev,
                            __ZN4E5RT15TensorElementAtIDF16_EERT_RKNS_16TensorDescriptorERKNSt3__16vectorImNS6_9allocatorImEEEEhRNS_12BufferObjectE,
                            __ZN4E5RT15TensorElementAtIDF16_EET_RKNS_16TensorDescriptorERKNSt3__16vectorImNS5_9allocatorImEEEEhRKNS_12BufferObjectE,
                            __ZN4E5RT15TensorElementAtIaEERT_RKNS_16TensorDescriptorERKNSt3__16vectorImNS6_9allocatorImEEEEhRNS_12BufferObjectE,
                            __ZN4E5RT15TensorElementAtIaEET_RKNS_16TensorDescriptorERKNSt3__16vectorImNS5_9allocatorImEEEEhRKNS_12BufferObjectE,
                            __ZN4E5RT15TensorElementAtIfEERT_RKNS_16TensorDescriptorERKNSt3__16vectorImNS6_9allocatorImEEEEhRNS_12BufferObjectE,
                            __ZN4E5RT15TensorElementAtIfEET_RKNS_16TensorDescriptorERKNSt3__16vectorImNS5_9allocatorImEEEEhRKNS_12BufferObjectE,
                            __ZN4E5RT15TensorElementAtIhEERT_RKNS_16TensorDescriptorERKNSt3__16vectorImNS6_9allocatorImEEEEhRNS_12BufferObjectE,
                            __ZN4E5RT15TensorElementAtIhEET_RKNS_16TensorDescriptorERKNSt3__16vectorImNS5_9allocatorImEEEEhRKNS_12BufferObjectE,
                            __ZN4E5RT15TensorElementAtIiEERT_RKNS_16TensorDescriptorERKNSt3__16vectorImNS6_9allocatorImEEEEhRNS_12BufferObjectE,
                            __ZN4E5RT15TensorElementAtIiEET_RKNS_16TensorDescriptorERKNSt3__16vectorImNS5_9allocatorImEEEEhRKNS_12BufferObjectE,
                            __ZN4E5RT15TensorElementAtIjEERT_RKNS_16TensorDescriptorERKNSt3__16vectorImNS6_9allocatorImEEEEhRNS_12BufferObjectE,
                            __ZN4E5RT15TensorElementAtIjEET_RKNS_16TensorDescriptorERKNSt3__16vectorImNS5_9allocatorImEEEEhRKNS_12BufferObjectE,
                            __ZN4E5RT15TensorElementAtIsEERT_RKNS_16TensorDescriptorERKNSt3__16vectorImNS6_9allocatorImEEEEhRNS_12BufferObjectE,
                            __ZN4E5RT15TensorElementAtIsEET_RKNS_16TensorDescriptorERKNSt3__16vectorImNS5_9allocatorImEEEEhRKNS_12BufferObjectE,
                            __ZN4E5RT15TensorElementAtItEERT_RKNS_16TensorDescriptorERKNSt3__16vectorImNS6_9allocatorImEEEEhRNS_12BufferObjectE,
                            __ZN4E5RT15TensorElementAtItEET_RKNS_16TensorDescriptorERKNSt3__16vectorImNS5_9allocatorImEEEEhRKNS_12BufferObjectE,
                            __ZN4E5RT16ComputeGPUDevice32GetAllAvailableComputeGPUDevicesEv,
                            __ZN4E5RT16ComputeGPUDeviceC1ENSt3__110unique_ptrINS_20ComputeGPUDeviceImplENS1_14default_deleteIS3_EEEE,
                            __ZN4E5RT16ComputeGPUDeviceC2ENSt3__110unique_ptrINS_20ComputeGPUDeviceImplENS1_14default_deleteIS3_EEEE,
                            __ZN4E5RT16ComputeGPUDeviceD0Ev,
                            __ZN4E5RT16ComputeGPUDeviceD1Ev,
                            __ZN4E5RT16ComputeGPUDeviceD2Ev,
                            __ZN4E5RT16TensorDequantizeERKNS_16TensorDescriptorERNS_12BufferObjectES2_RKS3_f,
                            __ZN4E5RT16TensorDescriptor16CreateTensorDescERKNSt3__16vectorImNS1_9allocatorImEEEERKNS_14TensorDataTypeE,
                            __ZN4E5RT16TensorDescriptor21SetDefaultTensorShapeERKNSt3__16vectorImNS1_9allocatorImEEEE,
                            __ZN4E5RT16TensorDescriptor33CreateTensorDescriptorWithStridesERKNSt3__16vectorImNS1_9allocatorImEEEERKNS2_IlNS3_IlEEEERKNS_14TensorDataTypeE,
                            __ZN4E5RT16TensorDescriptor36CreateTensorDescriptorWithAlignmentsERKNSt3__16vectorImNS1_9allocatorImEEEES7_RKNS_14TensorDataTypeE,
                            __ZN4E5RT16TensorDescriptor40CreateTensorDescriptorWithStridesAndSizeERKNSt3__16vectorImNS1_9allocatorImEEEERKNS2_IlNS3_IlEEEEmRKNS_14TensorDataTypeE,
                            __ZN4E5RT16TensorDescriptor43CreateTensorDescriptorWithAlignmentsAndSizeERKNSt3__16vectorImNS1_9allocatorImEEEES7_mRKNS_14TensorDataTypeE,
                            __ZN4E5RT16TensorDescriptor46CreateTensorDescriptorWithStridesComponentAxisERKNSt3__16vectorImNS1_9allocatorImEEEERKNS2_IlNS3_IlEEEERKNS_14TensorDataTypeEy,
                            __ZN4E5RT16TensorDescriptor49CreateTensorDescriptorWithAlignmentsComponentAxisERKNSt3__16vectorImNS1_9allocatorImEEEES7_RKNS_14TensorDataTypeEy,
                            __ZN4E5RT16TensorDescriptor50CreateTensorDescriptorWithStridesSizeComponentAxisERKNSt3__16vectorImNS1_9allocatorImEEEERKNS2_IlNS3_IlEEEEmRKNS_14TensorDataTypeEy,
                            __ZN4E5RT16TensorDescriptor56CreateTensorDescriptorWithAlignmentsComponentAxisAndSizeERKNSt3__16vectorImNS1_9allocatorImEEEES7_mRKNS_14TensorDataTypeEy,
                            __ZN4E5RT16TensorDescriptorC1ENSt3__110unique_ptrINS_20TensorDescriptorImplENS1_14default_deleteIS3_EEEE,
                            __ZN4E5RT16TensorDescriptorC1Ev,
                            __ZN4E5RT16TensorDescriptorC2ENSt3__110unique_ptrINS_20TensorDescriptorImplENS1_14default_deleteIS3_EEEE,
                            __ZN4E5RT16TensorDescriptorC2Ev,
                            __ZN4E5RT16TensorDescriptorD0Ev,
                            __ZN4E5RT16TensorDescriptorD1Ev,
                            __ZN4E5RT16TensorDescriptorD2Ev,
                            __ZN4E5RT17E5CompilerOptions12SetSegmenterERKNSt3__112basic_stringIcNS1_11char_traitsIcEENS1_9allocatorIcEEEE,
                            __ZN4E5RT17E5CompilerOptions17SetForceBNNSGraphEb,
                            __ZN4E5RT17E5CompilerOptions17SetMilEntryPointsERKNSt3__16vectorINS1_12basic_stringIcNS1_11char_traitsIcEENS1_9allocatorIcEEEENS6_IS8_EEEE,
                            __ZN4E5RT17E5CompilerOptions18SetEnableProfilingEb,
                            __ZN4E5RT17E5CompilerOptions21SetForceRecompilationEb,
                            __ZN4E5RT17E5CompilerOptions22SetForceFetchFromCacheEb,
                            __ZN4E5RT17E5CompilerOptions22SetPreferredCpuBackendERKNSt3__112basic_stringIcNS1_11char_traitsIcEENS1_9allocatorIcEEEE,
                            __ZN4E5RT17E5CompilerOptions23SetForceClassicAotOldHwEb,
                            __ZN4E5RT17E5CompilerOptions23SetPreferredCpuBackendsERKNSt3__16vectorINS1_12basic_stringIcNS1_11char_traitsIcEENS1_9allocatorIcEEEENS6_IS8_EEEE,
                            __ZN4E5RT17E5CompilerOptions24SetCreateProtectedAssetsEb,
                            __ZN4E5RT17E5CompilerOptions24SetEnableMPSGraphPackageEb,
                            __ZN4E5RT17E5CompilerOptions27SetCustomAneCompilerOptionsERKNSt3__112basic_stringIcNS1_11char_traitsIcEENS1_9allocatorIcEEEE,
                            __ZN4E5RT17E5CompilerOptions28SetComputeDeviceTypesAllowedERKNSt3__16vectorINS_17ComputeDeviceTypeENS1_9allocatorIS3_EEEE,
                            __ZN4E5RT17E5CompilerOptions31SetExperimentalMoveReadStateOpsEb,
                            __ZN4E5RT17E5CompilerOptions31SetExperimentalShrinkQuantGroupEb,
                            __ZN4E5RT17E5CompilerOptions37SetExperimentalForceClassicCpuBackendEb,
                            __ZN4E5RT17E5CompilerOptions38SetEnableReshapeWithMinimalAllocationsEb,
                            __ZN4E5RT17E5CompilerOptions40SetExperimentalDisableDataDependentShapeEb,
                            __ZN4E5RT17E5CompilerOptions40SetExperimentalMatchE5MinimalCpuPatternsEb,
                            __ZN4E5RT17E5CompilerOptions47SetExperimentalEnableDefaultFunctionForRangeDimEb,
                            __ZN4E5RT17E5CompilerOptions49SetExperimentalMatchE5MinimalCpuPatternsForStatesEb,
                            __ZN4E5RT17E5CompilerOptions54SetExperimentalDisableCompileTimeMPSGraphTypeInferenceEb,
                            __ZN4E5RT17E5CompilerOptions6CreateEv,
                            __ZN4E5RT17E5CompilerOptionsC1Ev,
                            __ZN4E5RT17E5CompilerOptionsC2Ev,
                            __ZN4E5RT17E5CompilerOptionsD0Ev,
                            __ZN4E5RT17E5CompilerOptionsD1Ev,
                            __ZN4E5RT17E5CompilerOptionsD2Ev,
                            __ZN4E5RT17E5CompilerOptionsaSERKS0_,
                            __ZN4E5RT17OperandDescriptorC1Ev,
                            __ZN4E5RT17OperandDescriptorC2Ev,
                            __ZN4E5RT17OperandDescriptorD0Ev,
                            __ZN4E5RT17OperandDescriptorD1Ev,
                            __ZN4E5RT17OperandDescriptorD2Ev,
                            __ZN4E5RT17SurfaceDescriptor23CreateSurfaceDescriptorENS_13SurfaceFormatEmm,
                            __ZN4E5RT17SurfaceDescriptor23CreateSurfaceDescriptorENS_13SurfaceFormatEmmRKNSt3__16vectorImNS2_9allocatorImEEEE,
                            __ZN4E5RT17SurfaceDescriptor23CreateSurfaceDescriptorENS_13SurfaceFormatEmmRKNSt3__16vectorImNS2_9allocatorImEEEEm,
                            __ZN4E5RT17SurfaceDescriptor23CreateSurfaceDescriptorENS_13SurfaceFormatEmmm,
                            __ZN4E5RT17SurfaceDescriptorC1ENSt3__110unique_ptrINS_21SurfaceDescriptorImplENS1_14default_deleteIS3_EEEE,
                            __ZN4E5RT17SurfaceDescriptorC1Ev,
                            __ZN4E5RT17SurfaceDescriptorC2ENSt3__110unique_ptrINS_21SurfaceDescriptorImplENS1_14default_deleteIS3_EEEE,
                            __ZN4E5RT17SurfaceDescriptorC2Ev,
                            __ZN4E5RT17SurfaceDescriptorD0Ev,
                            __ZN4E5RT17SurfaceDescriptorD1Ev,
                            __ZN4E5RT17SurfaceDescriptorD2Ev,
                            __ZN4E5RT18GetErrorCodeStringENS_9ErrorCodeE,
                            __ZN4E5RT18IsMultiSliceFormatENS_13SurfaceFormatE,
                            __ZN4E5RT21SharedResourceFactory14GetBnnsGraphIrERKNSt3__112basic_stringIcNS1_11char_traitsIcEENS1_9allocatorIcEEEEP12NSDictionary,
                            __ZN4E5RT21SharedResourceFactory21GetMPSGraphExecutableERKNSt3__112basic_stringIcNS1_11char_traitsIcEENS1_9allocatorIcEEEEP12NSDictionary,
                            __ZN4E5RT22CVPB4ccToSurfaceFormatEj,
                            __ZN4E5RT22SurfaceFormatToCVPB4ccENS_13SurfaceFormatE,
                            __ZN4E5RT23CopyTensorFromSrcToDestERKNS_16TensorDescriptorERKNS_12BufferObjectES2_RS3_,
                            __ZN4E5RT23E5CompilerConfigOptions22SetBundleCacheLocationERKNSt3__112basic_stringIcNS1_11char_traitsIcEENS1_9allocatorIcEEEE,
                            __ZN4E5RT23E5CompilerConfigOptions27SetBundleCacheAPFSPurgeableEb,
                            __ZN4E5RT23E5CompilerConfigOptions30defaultE5CompilerConfigOptionsEv,
                            __ZN4E5RT23E5CompilerConfigOptionsC1Ev,
                            __ZN4E5RT23E5CompilerConfigOptionsC2Ev,
                            __ZN4E5RT23E5CompilerConfigOptionsD0Ev,
                            __ZN4E5RT23E5CompilerConfigOptionsD1Ev,
                            __ZN4E5RT23E5CompilerConfigOptionsD2Ev,
                            __ZN4E5RT23E5CompilerConfigOptionsaSERKS0_,
                            __ZN4E5RT24ExecutionStreamOperation15GetInOutPortRefERKNSt3__112basic_stringIcNS1_11char_traitsIcEENS1_9allocatorIcEEEE,
                            __ZN4E5RT24ExecutionStreamOperation15GetInputPortRefERKNSt3__112basic_stringIcNS1_11char_traitsIcEENS1_9allocatorIcEEEE,
                            __ZN4E5RT24ExecutionStreamOperation16GetOutputPortRefERKNSt3__112basic_stringIcNS1_11char_traitsIcEENS1_9allocatorIcEEEE,
                            __ZN4E5RT24ExecutionStreamOperation16ReshapeOperationEONSt3__113unordered_mapINS1_12basic_stringIcNS1_11char_traitsIcEENS1_9allocatorIcEEEENS1_10unique_ptrIKNS_17OperandDescriptorENS1_14default_deleteISB_EEEENS1_4hashIS8_EENS1_8equal_toIS8_EENS6_INS1_4pairIKS8_SE_EEEEEE,
                            __ZN4E5RT24ExecutionStreamOperation16SetConfigOptionsENSt3__110unique_ptrINS_37ExecutionStreamOperationConfigOptionsENS1_14default_deleteIS3_EEEE,
                            __ZN4E5RT24ExecutionStreamOperation18PrepareOpForEncodeEv,
                            __ZN4E5RT24ExecutionStreamOperation18ResetConfigOptionsEv,
                            __ZN4E5RT24ExecutionStreamOperation23GetCompletionAsyncEventEv,
                            __ZN4E5RT24ExecutionStreamOperation24BindCompletionAsyncEventENSt3__110shared_ptrINS_10AsyncEventEEE,
                            __ZN4E5RT24ExecutionStreamOperation24BindDependentAsyncEventsEONSt3__113unordered_setINS1_10shared_ptrIKNS_10AsyncEventEEENS1_4hashIS6_EENS1_8equal_toIS6_EENS1_9allocatorIS6_EEEE,
                            __ZN4E5RT24ExecutionStreamOperation26CreatePreCompiledComputeOpERKNS_33PrecompiledComputeOpCreateOptionsE,
                            __ZN4E5RT24ExecutionStreamOperation26CreatePreCompiledComputeOpERKNSt3__112basic_stringIcNS1_11char_traitsIcEENS1_9allocatorIcEEEES9_S9_mb,
                            __ZN4E5RT24ExecutionStreamOperation26GetCompletionAsyncEventRefEv,
                            __ZN4E5RT24ExecutionStreamOperation27SerializeInferenceFrameDataENSt3__112basic_stringIcNS1_11char_traitsIcEENS1_9allocatorIcEEEES7_b,
                            __ZN4E5RT24ExecutionStreamOperation37SerializeInferenceFrameDataPerSegmentENSt3__112basic_stringIcNS1_11char_traitsIcEENS1_9allocatorIcEEEES7_b,
                            __ZN4E5RT24ExecutionStreamOperation42CreateResourceSharingPreCompiledComputeOpsERKNSt3__16vectorINS1_10shared_ptrINS_33PrecompiledComputeOpCreateOptionsEEENS1_9allocatorIS5_EEEE,
                            __ZN4E5RT24ExecutionStreamOperationC1Ev,
                            __ZN4E5RT24ExecutionStreamOperationC2Ev,
                            __ZN4E5RT24ExecutionStreamOperationD0Ev,
                            __ZN4E5RT24ExecutionStreamOperationD1Ev,
                            __ZN4E5RT24ExecutionStreamOperationD2Ev,
                            __ZN4E5RT28ExecutionStreamConfigOptions15SetSkipIOFencesEb,
                            __ZN4E5RT28ExecutionStreamConfigOptions30SetEnableLowLatencyAsyncEventsEb,
                            __ZN4E5RT28ExecutionStreamConfigOptions32SetEnableConcurrentSyncExecutionEb,
                            __ZN4E5RT28ExecutionStreamConfigOptions6CreateEv,
                            __ZN4E5RT28ExecutionStreamConfigOptionsC1Ev,
                            __ZN4E5RT28ExecutionStreamConfigOptionsC2Ev,
                            __ZN4E5RT28ExecutionStreamConfigOptionsD0Ev,
                            __ZN4E5RT28ExecutionStreamConfigOptionsD1Ev,
                            __ZN4E5RT28ExecutionStreamConfigOptionsD2Ev,
                            __ZN4E5RT28ExecutionStreamConfigOptionsaSERKS0_,
                            __ZN4E5RT33PrecompiledComputeOpCreateOptions13SetAneServiceEPKv,
                            __ZN4E5RT33PrecompiledComputeOpCreateOptions14SetLibraryPathERKNSt3__112basic_stringIcNS1_11char_traitsIcEENS1_9allocatorIcEEEE,
                            __ZN4E5RT33PrecompiledComputeOpCreateOptions16SetOperationNameERKNSt3__112basic_stringIcNS1_11char_traitsIcEENS1_9allocatorIcEEEE,
                            __ZN4E5RT33PrecompiledComputeOpCreateOptions19SetDynamicCallablesERKNSt3__113unordered_mapINS1_12basic_stringIcNS1_11char_traitsIcEENS1_9allocatorIcEEEES8_NS1_4hashIS8_EENS1_8equal_toIS8_EENS6_INS1_4pairIKS8_S8_EEEEEE,
                            __ZN4E5RT33PrecompiledComputeOpCreateOptions20SetTightBeamEndPointEy,
                            __ZN4E5RT33PrecompiledComputeOpCreateOptions24SetIOSurfaceMemoryPoolIdEy,
                            __ZN4E5RT33PrecompiledComputeOpCreateOptions24SetMutableMILWeightPathsERKNSt3__113unordered_mapINS1_12basic_stringIcNS1_11char_traitsIcEENS1_9allocatorIcEEEES8_NS1_4hashIS8_EENS1_8equal_toIS8_EENS6_INS1_4pairIKS8_S8_EEEEEE,
                            __ZN4E5RT33PrecompiledComputeOpCreateOptions25SetLazyPrepareOpForEncodeEb,
                            __ZN4E5RT33PrecompiledComputeOpCreateOptions27SetOverrideComputeGPUDeviceERKNS_16ComputeGPUDeviceE,
                            __ZN4E5RT33PrecompiledComputeOpCreateOptions30SetAllocateIntermediateBuffersEb,
                            __ZN4E5RT33PrecompiledComputeOpCreateOptions32SetExperimentalEnableGPUQuantOpsEb,
                            __ZN4E5RT33PrecompiledComputeOpCreateOptions43SetExperimentalEnableMPSGraphParallelEncodeEb,
                            __ZN4E5RT33PrecompiledComputeOpCreateOptions53SetExperimentalMPSGraphMaximumNumberOfEncodingThreadsEm,
                            __ZN4E5RT33PrecompiledComputeOpCreateOptions54SetExperimentalDisableCompileTimeMPSGraphTypeInferenceEb,
                            __ZN4E5RT33PrecompiledComputeOpCreateOptions6CreateENSt3__110shared_ptrIKNS_15ProgramFunctionEEE,
                            __ZN4E5RT33PrecompiledComputeOpCreateOptions6CreateERKNSt3__112basic_stringIcNS1_11char_traitsIcEENS1_9allocatorIcEEEES9_,
                            __ZN4E5RT33PrecompiledComputeOpCreateOptionsC1ENSt3__110unique_ptrINS_37PrecompiledComputeOpCreateOptionsImplENS1_14default_deleteIS3_EEEE,
                            __ZN4E5RT33PrecompiledComputeOpCreateOptionsC1Ev,
                            __ZN4E5RT33PrecompiledComputeOpCreateOptionsC2ENSt3__110unique_ptrINS_37PrecompiledComputeOpCreateOptionsImplENS1_14default_deleteIS3_EEEE,
                            __ZN4E5RT33PrecompiledComputeOpCreateOptionsC2Ev,
                            __ZN4E5RT33PrecompiledComputeOpCreateOptionsD0Ev,
                            __ZN4E5RT33PrecompiledComputeOpCreateOptionsD1Ev,
                            __ZN4E5RT33PrecompiledComputeOpCreateOptionsD2Ev,
                            __ZN4E5RT37ExecutionStreamOperationConfigOptions21SetPrewireModelMemoryEb,
                            __ZN4E5RT37ExecutionStreamOperationConfigOptions6CreateEv,
                            __ZN4E5RT37ExecutionStreamOperationConfigOptionsC1Ev,
                            __ZN4E5RT37ExecutionStreamOperationConfigOptionsC2Ev,
                            __ZN4E5RT37ExecutionStreamOperationConfigOptionsD0Ev,
                            __ZN4E5RT37ExecutionStreamOperationConfigOptionsD1Ev,
                            __ZN4E5RT37ExecutionStreamOperationConfigOptionsD2Ev,
                            __ZN4E5RT37ExecutionStreamOperationConfigOptionsaSERKS0_,
                            __ZN4E5RT3Ops25BnnsCpuInferenceOperation11ExecuteSyncEv,
                            __ZN4E5RT3Ops25BnnsCpuInferenceOperation14ResetOperationEv,
                            __ZN4E5RT3Ops25BnnsCpuInferenceOperation15EncodeOperationEPKNS_28ExecutionStreamConfigOptionsEy,
                            __ZN4E5RT3Ops25BnnsCpuInferenceOperation18PrepareOpForEncodeEv,
                            __ZN4E5RT3Ops25BnnsCpuInferenceOperation24ReshapeOperationInternalERKNSt3__113unordered_mapINS2_12basic_stringIcNS2_11char_traitsIcEENS2_9allocatorIcEEEENS2_10shared_ptrIKNS_17OperandDescriptorEEENS2_4hashIS9_EENS2_8equal_toIS9_EENS7_INS2_4pairIKS9_SD_EEEEEE,
                            __ZN4E5RT3Ops25BnnsCpuInferenceOperation4Impl11ExecuteSyncEv,
                            __ZN4E5RT3Ops25BnnsCpuInferenceOperation4Impl14ResetOperationEv,
                            __ZN4E5RT3Ops25BnnsCpuInferenceOperation4Impl15EncodeOperationEv,
                            __ZN4E5RT3Ops25BnnsCpuInferenceOperation4Impl18PrepareOpForEncodeEv,
                            __ZN4E5RT3Ops25BnnsCpuInferenceOperation4Impl24ReshapeOperationInternalERKNSt3__113unordered_mapINS3_12basic_stringIcNS3_11char_traitsIcEENS3_9allocatorIcEEEENS3_10shared_ptrIKNS_17OperandDescriptorEEENS3_4hashISA_EENS3_8equal_toISA_EENS8_INS3_4pairIKSA_SE_EEEEEE,
                            __ZN4E5RT3Ops25BnnsCpuInferenceOperation4Impl42ReshapeBnnsGraphContextBasedOnE5InputPortsEbb,
                            __ZN4E5RT3Ops25BnnsCpuInferenceOperation4ImplC1ERNS_32ExecutionStreamOperationInternalENSt3__110shared_ptrIK19BnnsCpuInferenceOpTEERKNS5_13unordered_mapINS5_12basic_stringIcNS5_11char_traitsIcEENS5_9allocatorIcEEEESG_NS5_4hashISG_EENS5_8equal_toISG_EENSE_INS5_4pairIKSG_SG_EEEEEE,
                            __ZN4E5RT3Ops25BnnsCpuInferenceOperation4ImplC2ERNS_32ExecutionStreamOperationInternalENSt3__110shared_ptrIK19BnnsCpuInferenceOpTEERKNS5_13unordered_mapINS5_12basic_stringIcNS5_11char_traitsIcEENS5_9allocatorIcEEEESG_NS5_4hashISG_EENS5_8equal_toISG_EENSE_INS5_4pairIKSG_SG_EEEEEE,
                            __ZN4E5RT3Ops25BnnsCpuInferenceOperation4ImplD1Ev,
                            __ZN4E5RT3Ops25BnnsCpuInferenceOperation4ImplD2Ev,
                            __ZN4E5RT3Ops25BnnsCpuInferenceOperationC1ERKNSt3__112basic_stringIcNS2_11char_traitsIcEENS2_9allocatorIcEEEENS2_10shared_ptrIK19BnnsCpuInferenceOpTEEONS2_13unordered_mapIS8_NSB_INS_6IOPortEEENS2_4hashIS8_EENS2_8equal_toIS8_EENS6_INS2_4pairIS9_SH_EEEEEESQ_RKNSF_IS8_S8_SJ_SL_NS6_INSM_IS9_S8_EEEEEESQ_,
                            __ZN4E5RT3Ops25BnnsCpuInferenceOperationC2ERKNSt3__112basic_stringIcNS2_11char_traitsIcEENS2_9allocatorIcEEEENS2_10shared_ptrIK19BnnsCpuInferenceOpTEEONS2_13unordered_mapIS8_NSB_INS_6IOPortEEENS2_4hashIS8_EENS2_8equal_toIS8_EENS6_INS2_4pairIS9_SH_EEEEEESQ_RKNSF_IS8_S8_SJ_SL_NS6_INSM_IS9_S8_EEEEEESQ_,
                            __ZN4E5RT6IOPort15GetMemoryObjectEv,
                            __ZN4E5RT6IOPort16BindMemoryObjectENSt3__110shared_ptrINS_12MemoryObjectEEE,
                            __ZN4E5RT6IOPort18GetMemoryObjectRefEv,
                            __ZN4E5RT6IOPortC1ENSt3__110unique_ptrINS_10IOPortImplENS1_14default_deleteIS3_EEEE,
                            __ZN4E5RT6IOPortC1Ev,
                            __ZN4E5RT6IOPortC2ENSt3__110unique_ptrINS_10IOPortImplENS1_14default_deleteIS3_EEEE,
                            __ZN4E5RT6IOPortC2Ev, __ZN4E5RT6IOPortD0Ev,
                            __ZN4E5RT6IOPortD1Ev, __ZN4E5RT6IOPortD2Ev,
                            __ZN4E5RT6Status4ImplC1ENS_9ErrorCodeERKNSt3__112basic_stringIcNS3_11char_traitsIcEENS3_9allocatorIcEEEE,
                            __ZN4E5RT6Status4ImplC1EOS1_,
                            __ZN4E5RT6Status4ImplC1ERKS1_,
                            __ZN4E5RT6Status4ImplC1Ev,
                            __ZN4E5RT6Status4ImplC2ENS_9ErrorCodeERKNSt3__112basic_stringIcNS3_11char_traitsIcEENS3_9allocatorIcEEEE,
                            __ZN4E5RT6Status4ImplC2EOS1_,
                            __ZN4E5RT6Status4ImplC2ERKS1_,
                            __ZN4E5RT6Status4ImplC2Ev, __ZN4E5RT6Status4ImplD1Ev,
                            __ZN4E5RT6Status4ImplD2Ev,
                            __ZN4E5RT6Status4ImplaSEOS1_,
                            __ZN4E5RT6Status4ImplaSERKS1_,
                            __ZN4E5RT6StatusC1ENS_9ErrorCodeERKNSt3__112basic_stringIcNS2_11char_traitsIcEENS2_9allocatorIcEEEE,
                            __ZN4E5RT6StatusC1EOS0_, __ZN4E5RT6StatusC1ERKS0_,
                            __ZN4E5RT6StatusC1Ev,
                            __ZN4E5RT6StatusC2ENS_9ErrorCodeERKNSt3__112basic_stringIcNS2_11char_traitsIcEENS2_9allocatorIcEEEE,
                            __ZN4E5RT6StatusC2EOS0_, __ZN4E5RT6StatusC2ERKS0_,
                            __ZN4E5RT6StatusC2Ev, __ZN4E5RT6StatusD1Ev,
                            __ZN4E5RT6StatusD2Ev, __ZN4E5RT6StatusaSEOS0_,
                            __ZN4E5RT6StatusaSERKS0_,
                            __ZN4E5RT9E5RTError4ImplC1ERKNSt3__112basic_stringIcNS2_11char_traitsIcEENS2_9allocatorIcEEEEONS_6StatusE,
                            __ZN4E5RT9E5RTError4ImplC2ERKNSt3__112basic_stringIcNS2_11char_traitsIcEENS2_9allocatorIcEEEEONS_6StatusE,
                            __ZN4E5RT9E5RTError4ImplD1Ev,
                            __ZN4E5RT9E5RTError4ImplD2Ev,
                            __ZN4E5RT9E5RTErrorC1ERKNSt3__112basic_stringIcNS1_11char_traitsIcEENS1_9allocatorIcEEEEONS_6StatusE,
                            __ZN4E5RT9E5RTErrorC2ERKNSt3__112basic_stringIcNS1_11char_traitsIcEENS1_9allocatorIcEEEEONS_6StatusE,
                            __ZN4E5RT9E5RTErrorD0Ev, __ZN4E5RT9E5RTErrorD1Ev,
                            __ZN4E5RT9E5RTErrorD2Ev,
                            __ZN4E5RTeqERKNS_14TensorDataTypeES2_,
                            __ZN4E5RTeqERKNS_16TensorDescriptorES2_,
                            __ZN4E5RTneERKNS_14TensorDataTypeES2_,
                            __ZN4E5RTneERKNS_16TensorDescriptorES2_,
                            __ZNK4E5RT10AsyncEvent12GetEventNameEv,
                            __ZNK4E5RT10AsyncEvent20GetActiveFutureValueEv,
                            __ZNK4E5RT10AsyncEvent20GetLastSignaledValueEv,
                            __ZNK4E5RT10AsyncEvent8SyncWaitEyy,
                            __ZNK4E5RT12BufferObject11GetDataSpanEv,
                            __ZNK4E5RT12BufferObject13GetBufferTypeEv,
                            __ZNK4E5RT12BufferObject7GetSizeEv,
                            __ZNK4E5RT12MemoryObject11TryAsBufferEv,
                            __ZNK4E5RT12MemoryObject12TryAsSurfaceEv,
                            __ZNK4E5RT12MemoryObject6BufferEv,
                            __ZNK4E5RT12MemoryObject7SurfaceEv,
                            __ZNK4E5RT13ComputeDevice13GetDeviceTypeEv,
                            __ZNK4E5RT13ComputeDevice18AsComputeGPUDeviceEv,
                            __ZNK4E5RT13ComputeDevice21TryAsComputeGPUDeviceEv,
                            __ZNK4E5RT13ConfigOptions15GetConfigOptionENSt3__117basic_string_viewIcNS1_11char_traitsIcEEEE,
                            __ZNK4E5RT13ConfigOptions19GetAllConfigOptionsEv,
                            __ZNK4E5RT13ConfigOptions19GetNumConfigOptionsEv,
                            __ZNK4E5RT13SurfaceObject42ValidateSurfaceObjectMatchesWithDescriptorERKNS_17SurfaceDescriptorE,
                            __ZNK4E5RT14ExecuteOptions22GetExecutionIdentifierEv,
                            __ZNK4E5RT14ExecuteOptions26GetEnableResourceTelemetryEv,
                            __ZNK4E5RT14ProgramLibrary12GetBuildInfoEv,
                            __ZNK4E5RT14ProgramLibrary14GetFunctionRefERKNSt3__112basic_stringIcNS1_11char_traitsIcEENS1_9allocatorIcEEEE,
                            __ZNK4E5RT14ProgramLibrary19GetFunctionMetadataERKNSt3__112basic_stringIcNS1_11char_traitsIcEENS1_9allocatorIcEEEE,
                            __ZNK4E5RT14ProgramLibrary20GetExportedFunctionsEv,
                            __ZNK4E5RT14ProgramLibrary24GetSegmentationAnalyticsEv,
                            __ZNK4E5RT14TensorDataType14GetElementSizeEv,
                            __ZNK4E5RT14TensorDataType16GetComponentPackEv,
                            __ZNK4E5RT14TensorDataType16GetComponentSizeEv,
                            __ZNK4E5RT14TensorDataType16GetNumComponentsEv,
                            __ZNK4E5RT14TensorDataType20GetComponentDataTypeEv,
                            __ZNK4E5RT14TensorDataType21IsElementSubByteSizedEv,
                            __ZNK4E5RT14TensorDataType23IsComponentSubByteSizedEv,
                            __ZNK4E5RT14TensorDataType29GetSubByteComponentSizeInBitsEv,
                            __ZNK4E5RT14TensorDataType4Impl14GetElementSizeEv,
                            __ZNK4E5RT14TensorDataType4Impl16GetComponentPackEv,
                            __ZNK4E5RT14TensorDataType4Impl16GetComponentSizeEv,
                            __ZNK4E5RT14TensorDataType4Impl16GetNumComponentsEv,
                            __ZNK4E5RT14TensorDataType4Impl20GetComponentDataTypeEv,
                            __ZNK4E5RT14TensorDataType4Impl21IsElementSubByteSizedEv,
                            __ZNK4E5RT14TensorDataType4Impl23IsComponentSubByteSizedEv,
                            __ZNK4E5RT14TensorDataType4Impl29GetSubByteComponentSizeInBitsEv,
                            __ZNK4E5RT14TensorDataType4Impl6IsTypeIDF16_EEbv,
                            __ZNK4E5RT14TensorDataType4Impl6IsTypeIaEEbv,
                            __ZNK4E5RT14TensorDataType4Impl6IsTypeIbEEbv,
                            __ZNK4E5RT14TensorDataType4Impl6IsTypeIfEEbv,
                            __ZNK4E5RT14TensorDataType4Impl6IsTypeIhEEbv,
                            __ZNK4E5RT14TensorDataType4Impl6IsTypeIiEEbv,
                            __ZNK4E5RT14TensorDataType4Impl6IsTypeIjEEbv,
                            __ZNK4E5RT14TensorDataType4Impl6IsTypeIsEEbv,
                            __ZNK4E5RT14TensorDataType4Impl6IsTypeItEEbv,
                            __ZNK4E5RT14TensorDataType6IsTypeIDF16_EEbv,
                            __ZNK4E5RT14TensorDataType6IsTypeIaEEbv,
                            __ZNK4E5RT14TensorDataType6IsTypeIbEEbv,
                            __ZNK4E5RT14TensorDataType6IsTypeIfEEbv,
                            __ZNK4E5RT14TensorDataType6IsTypeIhEEbv,
                            __ZNK4E5RT14TensorDataType6IsTypeIiEEbv,
                            __ZNK4E5RT14TensorDataType6IsTypeIjEEbv,
                            __ZNK4E5RT14TensorDataType6IsTypeIsEEbv,
                            __ZNK4E5RT14TensorDataType6IsTypeItEEbv,
                            __ZNK4E5RT15ExecutionStream11GetStreamIdEv,
                            __ZNK4E5RT15ExecutionStream16GetConfigOptionsEv,
                            __ZNK4E5RT15ExecutionStream45GetInternalAsyncComputeRequestIdForLastSubmitEv,
                            __ZNK4E5RT15TensorDimension11GetDimIndexEv,
                            __ZNK4E5RT15TensorDimension9GetLengthEv,
                            __ZNK4E5RT15TensorDimension9GetStrideEv,
                            __ZNK4E5RT16TensorDescriptor13GetByteOffsetERKNSt3__16vectorImNS1_9allocatorImEEEE,
                            __ZNK4E5RT16TensorDescriptor13HasKnownShapeEv,
                            __ZNK4E5RT16TensorDescriptor14AllocateMemoryENS_10BufferTypeEm,
                            __ZNK4E5RT16TensorDescriptor14GetNumElementsEv,
                            __ZNK4E5RT16TensorDescriptor14GetTensorShapeEv,
                            __ZNK4E5RT16TensorDescriptor16GetComponentAxisEv,
                            __ZNK4E5RT16TensorDescriptor16GetTensorStridesEv,
                            __ZNK4E5RT16TensorDescriptor16TryGetAlignmentsEv,
                            __ZNK4E5RT16TensorDescriptor17GetTensorDataTypeEv,
                            __ZNK4E5RT16TensorDescriptor20GetTensorDataTypeRefEv,
                            __ZNK4E5RT16TensorDescriptor21CreateTensorDescSliceERKNSt3__16vectorImNS1_9allocatorImEEEE,
                            __ZNK4E5RT16TensorDescriptor21CreateTensorDescSliceERKNSt3__16vectorImNS1_9allocatorImEEEES7_,
                            __ZNK4E5RT16TensorDescriptor24TryGetDefaultTensorShapeEv,
                            __ZNK4E5RT16TensorDescriptor7GetRankEv,
                            __ZNK4E5RT16TensorDescriptor7GetSizeEv,
                            __ZNK4E5RT16TensorDescriptorixEm,
                            __ZNK4E5RT17E5CompilerOptions12GetSegmenterEv,
                            __ZNK4E5RT17E5CompilerOptions17GetForceBNNSGraphEv,
                            __ZNK4E5RT17E5CompilerOptions17GetMilEntryPointsEv,
                            __ZNK4E5RT17E5CompilerOptions18GetEnableProfilingEv,
                            __ZNK4E5RT17E5CompilerOptions21GetForceRecompilationEv,
                            __ZNK4E5RT17E5CompilerOptions22GetForceFetchFromCacheEv,
                            __ZNK4E5RT17E5CompilerOptions22GetPreferredCpuBackendEv,
                            __ZNK4E5RT17E5CompilerOptions23GetForceClassicAotOldHwEv,
                            __ZNK4E5RT17E5CompilerOptions23GetPreferredCpuBackendsEv,
                            __ZNK4E5RT17E5CompilerOptions24GetCreateProtectedAssetsEv,
                            __ZNK4E5RT17E5CompilerOptions24GetEnableMPSGraphPackageEv,
                            __ZNK4E5RT17E5CompilerOptions27GetCustomAneCompilerOptionsEv,
                            __ZNK4E5RT17E5CompilerOptions28GetComputeDeviceTypesAllowedEv,
                            __ZNK4E5RT17E5CompilerOptions31GetExperimentalMoveReadStateOpsEv,
                            __ZNK4E5RT17E5CompilerOptions31GetExperimentalShrinkQuantGroupEv,
                            __ZNK4E5RT17E5CompilerOptions37GetExperimentalForceClassicCpuBackendEv,
                            __ZNK4E5RT17E5CompilerOptions38GetEnableReshapeWithMinimalAllocationsEv,
                            __ZNK4E5RT17E5CompilerOptions40GetExperimentalDisableDataDependentShapeEv,
                            __ZNK4E5RT17E5CompilerOptions40GetExperimentalMatchE5MinimalCpuPatternsEv,
                            __ZNK4E5RT17E5CompilerOptions47GetExperimentalEnableDefaultFunctionForRangeDimEv,
                            __ZNK4E5RT17E5CompilerOptions49GetExperimentalMatchE5MinimalCpuPatternsForStatesEv,
                            __ZNK4E5RT17E5CompilerOptions54GetExperimentalDisableCompileTimeMPSGraphTypeInferenceEv,
                            __ZNK4E5RT17E5CompilerOptionseqERKS0_,
                            __ZNK4E5RT17E5CompilerOptionsneERKS0_,
                            __ZNK4E5RT17OperandDescriptor16TensorDescriptorEv,
                            __ZNK4E5RT17OperandDescriptor17SurfaceDescriptorEv,
                            __ZNK4E5RT17OperandDescriptor21TryAsTensorDescriptorEv,
                            __ZNK4E5RT17OperandDescriptor22TryAsSurfaceDescriptorEv,
                            __ZNK4E5RT17OperandDescriptoreqERKS0_,
                            __ZNK4E5RT17OperandDescriptorneERKS0_,
                            __ZNK4E5RT17SurfaceDescriptor15GetSurfaceWidthEv,
                            __ZNK4E5RT17SurfaceDescriptor16GetSurfaceFormatEv,
                            __ZNK4E5RT17SurfaceDescriptor16GetSurfaceHeightEv,
                            __ZNK4E5RT17SurfaceDescriptor19GetCustomRowStridesEv,
                            __ZNK4E5RT17SurfaceDescriptor20GetSurfacePlaneCountEv,
                            __ZNK4E5RT17SurfaceDescriptor20GetSurfaceSliceCountEv,
                            __ZNK4E5RT17SurfaceDescriptor22TryGetCustomRowStridesEv,
                            __ZNK4E5RT17SurfaceDescriptoreqERKS0_,
                            __ZNK4E5RT17SurfaceDescriptorneERKS0_,
                            __ZNK4E5RT23E5CompilerConfigOptions22GetBundleCacheLocationEv,
                            __ZNK4E5RT23E5CompilerConfigOptions27GetBundleCacheAPFSPurgeableEv,
                            __ZNK4E5RT24ExecutionStreamOperation13GetInOutPortsEv,
                            __ZNK4E5RT24ExecutionStreamOperation13GetInputPortsEv,
                            __ZNK4E5RT24ExecutionStreamOperation14GetOutputPortsEv,
                            __ZNK4E5RT24ExecutionStreamOperation15GetInOutPortRefERKNSt3__112basic_stringIcNS1_11char_traitsIcEENS1_9allocatorIcEEEE,
                            __ZNK4E5RT24ExecutionStreamOperation15GetInputPortRefERKNSt3__112basic_stringIcNS1_11char_traitsIcEENS1_9allocatorIcEEEE,
                            __ZNK4E5RT24ExecutionStreamOperation16GetConfigOptionsEv,
                            __ZNK4E5RT24ExecutionStreamOperation16GetOutputPortRefERKNSt3__112basic_stringIcNS1_11char_traitsIcEENS1_9allocatorIcEEEE,
                            __ZNK4E5RT24ExecutionStreamOperation23GetDependentAsyncEventsEv,
                            __ZNK4E5RT24ExecutionStreamOperation25GetDependentAsyncEventRefERKNSt3__112basic_stringIcNS1_11char_traitsIcEENS1_9allocatorIcEEEE,
                            __ZNK4E5RT24ExecutionStreamOperation26GetCompletionAsyncEventRefEv,
                            __ZNK4E5RT24ExecutionStreamOperation9GetOpNameEv,
                            __ZNK4E5RT28ExecutionStreamConfigOptions15GetSkipIOFencesEv,
                            __ZNK4E5RT28ExecutionStreamConfigOptions30GetEnableLowLatencyAsyncEventsEv,
                            __ZNK4E5RT28ExecutionStreamConfigOptions32GetEnableConcurrentSyncExecutionEv,
                            __ZNK4E5RT33PrecompiledComputeOpCreateOptions13GetAneServiceEv,
                            __ZNK4E5RT33PrecompiledComputeOpCreateOptions14GetLibraryPathEv,
                            __ZNK4E5RT33PrecompiledComputeOpCreateOptions16GetOperationNameEv,
                            __ZNK4E5RT33PrecompiledComputeOpCreateOptions18GetProgramFunctionEv,
                            __ZNK4E5RT33PrecompiledComputeOpCreateOptions19GetDynamicCallablesEv,
                            __ZNK4E5RT33PrecompiledComputeOpCreateOptions20GetTightBeamEndPointEv,
                            __ZNK4E5RT33PrecompiledComputeOpCreateOptions24GetIOSurfaceMemoryPoolIdEv,
                            __ZNK4E5RT33PrecompiledComputeOpCreateOptions24GetMutableMILWeightPathsEv,
                            __ZNK4E5RT33PrecompiledComputeOpCreateOptions25GetLazyPrepareOpForEncodeEv,
                            __ZNK4E5RT33PrecompiledComputeOpCreateOptions27GetOverrideComputeGPUDeviceEv,
                            __ZNK4E5RT33PrecompiledComputeOpCreateOptions30GetAllocateIntermediateBuffersEv,
                            __ZNK4E5RT33PrecompiledComputeOpCreateOptions30TryGetOverrideComputeGPUDeviceEv,
                            __ZNK4E5RT33PrecompiledComputeOpCreateOptions32GetExperimentalEnableGPUQuantOpsEv,
                            __ZNK4E5RT33PrecompiledComputeOpCreateOptions43GetExperimentalEnableMPSGraphParallelEncodeEv,
                            __ZNK4E5RT33PrecompiledComputeOpCreateOptions53GetExperimentalMPSGraphMaximumNumberOfEncodingThreadsEv,
                            __ZNK4E5RT33PrecompiledComputeOpCreateOptions54GetExperimentalDisableCompileTimeMPSGraphTypeInferenceEv,
                            __ZNK4E5RT37ExecutionStreamOperationConfigOptions21GetPrewireModelMemoryEv,
                            __ZNK4E5RT6IOPort13HasKnownShapeEv,
                            __ZNK4E5RT6IOPort15GetMemoryObjectEv,
                            __ZNK4E5RT6IOPort17GetPortDescriptorEv,
                            __ZNK4E5RT6IOPort18GetMemoryObjectRefEv,
                            __ZNK4E5RT6IOPort20GetPortDescriptorRefEv,
                            __ZNK4E5RT6IOPort23GetSupportedBufferTypesEv,
                            __ZNK4E5RT6IOPort9IsDynamicEv,
                            __ZNK4E5RT6Status12GetErrorCodeEv,
                            __ZNK4E5RT6Status15GetErrorMessageEv,
                            __ZNK4E5RT6Status4Impl12GetErrorCodeEv,
                            __ZNK4E5RT6Status4Impl15GetErrorMessageEv,
                            __ZNK4E5RT6Status4Impl7SuccessEv,
                            __ZNK4E5RT6Status7SuccessEv,
                            __ZNK4E5RT9E5RTError11GetLocationEv,
                            __ZNK4E5RT9E5RTError4Impl11GetLocationEv,
                            __ZNK4E5RT9E5RTError4Impl9GetStatusEv,
                            __ZNK4E5RT9E5RTError9GetStatusEv,
                            __ZTIN4E5RT10AsyncEventE, __ZTIN4E5RT10E5CompilerE,
                            __ZTIN4E5RT12BufferObjectE,
                            __ZTIN4E5RT12MemoryObjectE,
                            __ZTIN4E5RT13ComputeDeviceE,
                            __ZTIN4E5RT13ConfigOptionsE,
                            __ZTIN4E5RT13SurfaceObjectE,
                            __ZTIN4E5RT14ExecuteOptionsE,
                            __ZTIN4E5RT14ProgramLibraryE,
                            __ZTIN4E5RT14TensorDataTypeE,
                            __ZTIN4E5RT15ExecutionStreamE,
                            __ZTIN4E5RT15TensorDimensionE,
                            __ZTIN4E5RT16ComputeGPUDeviceE,
                            __ZTIN4E5RT16TensorDescriptorE,
                            __ZTIN4E5RT17E5CompilerOptionsE,
                            __ZTIN4E5RT17OperandDescriptorE,
                            __ZTIN4E5RT17SurfaceDescriptorE,
                            __ZTIN4E5RT23E5CompilerConfigOptionsE,
                            __ZTIN4E5RT24ExecutionStreamOperationE,
                            __ZTIN4E5RT28ExecutionStreamConfigOptionsE,
                            __ZTIN4E5RT33PrecompiledComputeOpCreateOptionsE,
                            __ZTIN4E5RT37ExecutionStreamOperationConfigOptionsE,
                            __ZTIN4E5RT6IOPortE, __ZTIN4E5RT9E5RTErrorE,
                            __ZTSN4E5RT10AsyncEventE, __ZTSN4E5RT10E5CompilerE,
                            __ZTSN4E5RT12BufferObjectE,
                            __ZTSN4E5RT12MemoryObjectE,
                            __ZTSN4E5RT13ComputeDeviceE,
                            __ZTSN4E5RT13ConfigOptionsE,
                            __ZTSN4E5RT13SurfaceObjectE,
                            __ZTSN4E5RT14ExecuteOptionsE,
                            __ZTSN4E5RT14ProgramLibraryE,
                            __ZTSN4E5RT14TensorDataTypeE,
                            __ZTSN4E5RT15ExecutionStreamE,
                            __ZTSN4E5RT15TensorDimensionE,
                            __ZTSN4E5RT16ComputeGPUDeviceE,
                            __ZTSN4E5RT16TensorDescriptorE,
                            __ZTSN4E5RT17E5CompilerOptionsE,
                            __ZTSN4E5RT17OperandDescriptorE,
                            __ZTSN4E5RT17SurfaceDescriptorE,
                            __ZTSN4E5RT23E5CompilerConfigOptionsE,
                            __ZTSN4E5RT24ExecutionStreamOperationE,
                            __ZTSN4E5RT28ExecutionStreamConfigOptionsE,
                            __ZTSN4E5RT33PrecompiledComputeOpCreateOptionsE,
                            __ZTSN4E5RT37ExecutionStreamOperationConfigOptionsE,
                            __ZTSN4E5RT6IOPortE, __ZTSN4E5RT9E5RTErrorE,
                            __ZTVN4E5RT10AsyncEventE, __ZTVN4E5RT10E5CompilerE,
                            __ZTVN4E5RT12BufferObjectE,
                            __ZTVN4E5RT12MemoryObjectE,
                            __ZTVN4E5RT13ComputeDeviceE,
                            __ZTVN4E5RT13ConfigOptionsE,
                            __ZTVN4E5RT13SurfaceObjectE,
                            __ZTVN4E5RT14ExecuteOptionsE,
                            __ZTVN4E5RT14ProgramLibraryE,
                            __ZTVN4E5RT14TensorDataTypeE,
                            __ZTVN4E5RT15ExecutionStreamE,
                            __ZTVN4E5RT15TensorDimensionE,
                            __ZTVN4E5RT16ComputeGPUDeviceE,
                            __ZTVN4E5RT16TensorDescriptorE,
                            __ZTVN4E5RT17E5CompilerOptionsE,
                            __ZTVN4E5RT17OperandDescriptorE,
                            __ZTVN4E5RT17SurfaceDescriptorE,
                            __ZTVN4E5RT23E5CompilerConfigOptionsE,
                            __ZTVN4E5RT24ExecutionStreamOperationE,
                            __ZTVN4E5RT28ExecutionStreamConfigOptionsE,
                            __ZTVN4E5RT33PrecompiledComputeOpCreateOptionsE,
                            __ZTVN4E5RT37ExecutionStreamOperationConfigOptionsE,
                            __ZTVN4E5RT6IOPortE, __ZTVN4E5RT9E5RTErrorE,
                            _e5rt_buffer_object_alloc,
                            _e5rt_buffer_object_create_as_alias,
                            _e5rt_buffer_object_create_from_data_pointer,
                            _e5rt_buffer_object_create_from_exsurface,
                            _e5rt_buffer_object_get_data_ptr,
                            _e5rt_buffer_object_get_exsurface,
                            _e5rt_buffer_object_get_size,
                            _e5rt_buffer_object_get_type,
                            _e5rt_buffer_object_release,
                            _e5rt_compute_gpu_device_release,
                            _e5rt_compute_gpu_device_retain_all,
                            _e5rt_cvpb_4cc_to_surface_format,
                            _e5rt_e5_compiler_compile,
                            _e5rt_e5_compiler_compile_from_ir_program,
                            _e5rt_e5_compiler_config_options_create,
                            _e5rt_e5_compiler_config_options_get_bundle_cache_apfs_purgeable,
                            _e5rt_e5_compiler_config_options_get_cache_bundle_location,
                            _e5rt_e5_compiler_config_options_release,
                            _e5rt_e5_compiler_config_options_set_bundle_cache_apfs_purgeable,
                            _e5rt_e5_compiler_config_options_set_cache_bundle_location,
                            _e5rt_e5_compiler_create,
                            _e5rt_e5_compiler_create_with_config,
                            _e5rt_e5_compiler_is_new_compile_required,
                            _e5rt_e5_compiler_options_create,
                            _e5rt_e5_compiler_options_get_compute_device_types_mask,
                            _e5rt_e5_compiler_options_get_create_protected_assets,
                            _e5rt_e5_compiler_options_get_custom_ane_compiler_options,
                            _e5rt_e5_compiler_options_get_enable_mpsgraph_package,
                            _e5rt_e5_compiler_options_get_enable_profiling,
                            _e5rt_e5_compiler_options_get_enable_reshape_with_minimal_allocations,
                            _e5rt_e5_compiler_options_get_experimental_disable_compile_time_mpsgraph_type_inference,
                            _e5rt_e5_compiler_options_get_experimental_disable_data_dependent_shape,
                            _e5rt_e5_compiler_options_get_experimental_enable_default_function_for_range_dim,
                            _e5rt_e5_compiler_options_get_experimental_force_classic_cpu_backend,
                            _e5rt_e5_compiler_options_get_experimental_match_e5_minimal_cpu_patterns,
                            _e5rt_e5_compiler_options_get_experimental_match_e5_minimal_cpu_patterns_for_states,
                            _e5rt_e5_compiler_options_get_force_bnns_graph,
                            _e5rt_e5_compiler_options_get_force_classic_aot_old_hw,
                            _e5rt_e5_compiler_options_get_force_fetch_from_cache,
                            _e5rt_e5_compiler_options_get_force_recompilation,
                            _e5rt_e5_compiler_options_get_preferred_cpu_backend,
                            _e5rt_e5_compiler_options_get_preferred_cpu_backends,
                            _e5rt_e5_compiler_options_get_segmenter,
                            _e5rt_e5_compiler_options_release,
                            _e5rt_e5_compiler_options_retain_mil_entry_points,
                            _e5rt_e5_compiler_options_set_compute_device_types_mask,
                            _e5rt_e5_compiler_options_set_create_protected_assets,
                            _e5rt_e5_compiler_options_set_custom_ane_compiler_options,
                            _e5rt_e5_compiler_options_set_enable_mpsgraph_package,
                            _e5rt_e5_compiler_options_set_enable_profiling,
                            _e5rt_e5_compiler_options_set_enable_reshape_with_minimal_allocations,
                            _e5rt_e5_compiler_options_set_experimental_disable_compile_time_mpsgraph_type_inference,
                            _e5rt_e5_compiler_options_set_experimental_disable_data_dependent_shape,
                            _e5rt_e5_compiler_options_set_experimental_enable_default_function_for_range_dim,
                            _e5rt_e5_compiler_options_set_experimental_force_classic_cpu_backend,
                            _e5rt_e5_compiler_options_set_experimental_match_e5_minimal_cpu_patterns,
                            _e5rt_e5_compiler_options_set_experimental_match_e5_minimal_cpu_patterns_for_states,
                            _e5rt_e5_compiler_options_set_force_bnns_graph,
                            _e5rt_e5_compiler_options_set_force_classic_aot_old_hw,
                            _e5rt_e5_compiler_options_set_force_fetch_from_cache,
                            _e5rt_e5_compiler_options_set_force_recompilation,
                            _e5rt_e5_compiler_options_set_mil_entry_points,
                            _e5rt_e5_compiler_options_set_preferred_cpu_backend,
                            _e5rt_e5_compiler_options_set_preferred_cpu_backends,
                            _e5rt_e5_compiler_options_set_segmenter,
                            _e5rt_e5_compiler_purge_e5_bundles_for_input_model,
                            _e5rt_e5_compiler_release,
                            _e5rt_error_code_get_string,
                            _e5rt_execution_stream_async_submit,
                            _e5rt_execution_stream_config_options_create,
                            _e5rt_execution_stream_config_options_get_enable_concurrent_sync_execution,
                            _e5rt_execution_stream_config_options_get_enable_low_latency_async_events,
                            _e5rt_execution_stream_config_options_get_skip_io_fences,
                            _e5rt_execution_stream_config_options_release,
                            _e5rt_execution_stream_config_options_set_enable_concurrent_sync_execution,
                            _e5rt_execution_stream_config_options_set_enable_low_latency_async_events,
                            _e5rt_execution_stream_config_options_set_skip_io_fences,
                            _e5rt_execution_stream_create,
                            _e5rt_execution_stream_encode_operation,
                            _e5rt_execution_stream_encode_workload,
                            _e5rt_execution_stream_execute_sync,
                            _e5rt_execution_stream_get_internal_async_compute_request_id_for_last_submit,
                            _e5rt_execution_stream_get_stream_id,
                            _e5rt_execution_stream_operation_bind_completion_event,
                            _e5rt_execution_stream_operation_bind_dependent_events,
                            _e5rt_execution_stream_operation_config_options_create,
                            _e5rt_execution_stream_operation_config_options_get_prewire_model_memory,
                            _e5rt_execution_stream_operation_config_options_release,
                            _e5rt_execution_stream_operation_config_options_set_prewire_model_memory,
                            _e5rt_execution_stream_operation_create_precompiled_compute_operation,
                            _e5rt_execution_stream_operation_create_precompiled_compute_operation_with_options,
                            _e5rt_execution_stream_operation_create_resource_sharing_precompiled_compute_operations_with_multiple_options,
                            _e5rt_execution_stream_operation_get_dependent_event_count,
                            _e5rt_execution_stream_operation_get_inout_names,
                            _e5rt_execution_stream_operation_get_input_names,
                            _e5rt_execution_stream_operation_get_num_inouts,
                            _e5rt_execution_stream_operation_get_num_inputs,
                            _e5rt_execution_stream_operation_get_num_outputs,
                            _e5rt_execution_stream_operation_get_opname,
                            _e5rt_execution_stream_operation_get_output_names,
                            _e5rt_execution_stream_operation_prepare_op_for_encode,
                            _e5rt_execution_stream_operation_release,
                            _e5rt_execution_stream_operation_reshape_operation,
                            _e5rt_execution_stream_operation_retain_completion_event,
                            _e5rt_execution_stream_operation_retain_dependent_events,
                            _e5rt_execution_stream_operation_retain_inout_port,
                            _e5rt_execution_stream_operation_retain_input_port,
                            _e5rt_execution_stream_operation_retain_output_port,
                            _e5rt_execution_stream_operation_serialize_inference_frame_data,
                            _e5rt_execution_stream_operation_serialize_inference_frame_data_per_segment,
                            _e5rt_execution_stream_prewire_in_use_allocations,
                            _e5rt_execution_stream_release,
                            _e5rt_execution_stream_reset,
                            _e5rt_execution_stream_reset_config_options,
                            _e5rt_execution_stream_set_ane_execution_priority,
                            _e5rt_execution_stream_set_config_options,
                            _e5rt_execution_stream_step_execute_sync,
                            _e5rt_execution_stream_submit_async,
                            _e5rt_get_last_error_message,
                            _e5rt_io_port_bind_buffer_object,
                            _e5rt_io_port_bind_memory_object,
                            _e5rt_io_port_bind_surface_object,
                            _e5rt_io_port_get_supported_buffer_types,
                            _e5rt_io_port_has_known_shape,
                            _e5rt_io_port_is_dynamic, _e5rt_io_port_is_surface,
                            _e5rt_io_port_is_tensor, _e5rt_io_port_release,
                            _e5rt_io_port_retain_buffer_object,
                            _e5rt_io_port_retain_memory_object,
                            _e5rt_io_port_retain_surface_desc,
                            _e5rt_io_port_retain_surface_object,
                            _e5rt_io_port_retain_tensor_desc,
                            _e5rt_memory_object_create,
                            _e5rt_memory_object_create_as_alias,
                            _e5rt_memory_object_get_data_ptr,
                            _e5rt_memory_object_get_size,
                            _e5rt_memory_object_release,
                            _e5rt_operand_desc_is_surface_desc,
                            _e5rt_operand_desc_is_tensor_desc,
                            _e5rt_operand_desc_release,
                            _e5rt_operand_desc_retain_from_surface_desc,
                            _e5rt_operand_desc_retain_from_tensor_desc,
                            _e5rt_precompiled_compute_op_create_options_copy_dynamic_callables,
                            _e5rt_precompiled_compute_op_create_options_create,
                            _e5rt_precompiled_compute_op_create_options_create_with_program_function,
                            _e5rt_precompiled_compute_op_create_options_get_allocate_intermediate_buffers,
                            _e5rt_precompiled_compute_op_create_options_get_ane_service,
                            _e5rt_precompiled_compute_op_create_options_get_experimental_enable_mpsgraph_parallel_encode,
                            _e5rt_precompiled_compute_op_create_options_get_iosurface_memory_pool_id,
                            _e5rt_precompiled_compute_op_create_options_get_lazy_prepare_op_for_encode,
                            _e5rt_precompiled_compute_op_create_options_get_operation_name,
                            _e5rt_precompiled_compute_op_create_options_get_tightbeam_endpoint,
                            _e5rt_precompiled_compute_op_create_options_release,
                            _e5rt_precompiled_compute_op_create_options_retain_override_compute_gpu_device,
                            _e5rt_precompiled_compute_op_create_options_set_allocate_intermediate_buffers,
                            _e5rt_precompiled_compute_op_create_options_set_ane_service,
                            _e5rt_precompiled_compute_op_create_options_set_dynamic_callables,
                            _e5rt_precompiled_compute_op_create_options_set_experimental_disable_compile_time_mpsgraph_type_inference,
                            _e5rt_precompiled_compute_op_create_options_set_experimental_enable_gpu_quant_ops,
                            _e5rt_precompiled_compute_op_create_options_set_experimental_enable_mpsgraph_parallel_encode,
                            _e5rt_precompiled_compute_op_create_options_set_experimental_mpsgraph_maximum_number_of_encoding_threads,
                            _e5rt_precompiled_compute_op_create_options_set_iosurface_memory_pool_id,
                            _e5rt_precompiled_compute_op_create_options_set_lazy_prepare_op_for_encode,
                            _e5rt_precompiled_compute_op_create_options_set_operation_name,
                            _e5rt_precompiled_compute_op_create_options_set_override_compute_gpu_device,
                            _e5rt_precompiled_compute_op_create_options_set_tightbeam_endpoint,
                            _e5rt_program_function_get_extern_inout_names,
                            _e5rt_program_function_get_extern_input_names,
                            _e5rt_program_function_get_extern_output_names,
                            _e5rt_program_function_get_name,
                            _e5rt_program_function_get_num_extern_inouts,
                            _e5rt_program_function_get_num_extern_inputs,
                            _e5rt_program_function_get_num_extern_outputs,
                            _e5rt_program_function_load_for_execution,
                            _e5rt_program_function_release,
                            _e5rt_program_function_retain_extern_input_io_port,
                            _e5rt_program_function_retain_extern_output_io_port,
                            _e5rt_program_function_retain_inout_surface_desc,
                            _e5rt_program_function_retain_inout_tensor_desc,
                            _e5rt_program_function_retain_input_surface_desc,
                            _e5rt_program_function_retain_input_tensor_desc,
                            _e5rt_program_function_retain_output_surface_desc,
                            _e5rt_program_function_retain_output_tensor_desc,
                            _e5rt_program_library_analytics_key_backend_support,
                            _e5rt_program_library_analytics_key_debug_name,
                            _e5rt_program_library_analytics_key_estimated_runtime,
                            _e5rt_program_library_analytics_key_op_index,
                            _e5rt_program_library_analytics_key_op_path,
                            _e5rt_program_library_analytics_key_op_path_function_name,
                            _e5rt_program_library_analytics_key_op_path_op_output,
                            _e5rt_program_library_analytics_key_op_path_type,
                            _e5rt_program_library_analytics_key_op_type,
                            _e5rt_program_library_analytics_key_selected_backend,
                            _e5rt_program_library_analytics_key_traceability_names,
                            _e5rt_program_library_analytics_key_traceability_types,
                            _e5rt_program_library_analytics_key_validation_messages,
                            _e5rt_program_library_analytics_op_path_block_type_name,
                            _e5rt_program_library_analytics_op_path_function_type_name,
                            _e5rt_program_library_analytics_op_path_op_type_name,
                            _e5rt_program_library_analytics_op_path_program_type_name,
                            _e5rt_program_library_create,
                            _e5rt_program_library_get_build_info,
                            _e5rt_program_library_get_e5_bundle_path,
                            _e5rt_program_library_get_function_metadata,
                            _e5rt_program_library_get_function_names,
                            _e5rt_program_library_get_num_functions,
                            _e5rt_program_library_get_segmentation_analytics,
                            _e5rt_program_library_release,
                            _e5rt_program_library_retain_program_function,
                            _e5rt_surface_desc_create,
                            _e5rt_surface_desc_create_from_operand_desc,
                            _e5rt_surface_desc_create_with_slices,
                            _e5rt_surface_desc_create_with_strides,
                            _e5rt_surface_desc_create_with_strides_and_slices,
                            _e5rt_surface_desc_get_custom_row_strides,
                            _e5rt_surface_desc_get_format,
                            _e5rt_surface_desc_get_height,
                            _e5rt_surface_desc_get_plane_count,
                            _e5rt_surface_desc_get_slice_count,
                            _e5rt_surface_desc_get_width,
                            _e5rt_surface_desc_release,
                            _e5rt_surface_format_to_cvpb_4cc,
                            _e5rt_surface_object_alloc,
                            _e5rt_surface_object_release,
                            _e5rt_tensor_desc_alloc_buffer_object,
                            _e5rt_tensor_desc_create,
                            _e5rt_tensor_desc_create_from_operand_desc,
                            _e5rt_tensor_desc_create_memory_object,
                            _e5rt_tensor_desc_create_slice,
                            _e5rt_tensor_desc_create_slice_with_lengths,
                            _e5rt_tensor_desc_create_with_alignments,
                            _e5rt_tensor_desc_create_with_strides,
                            _e5rt_tensor_desc_dtype_are_equal,
                            _e5rt_tensor_desc_dtype_create,
                            _e5rt_tensor_desc_dtype_get_component_dtype,
                            _e5rt_tensor_desc_dtype_get_component_pack,
                            _e5rt_tensor_desc_dtype_get_component_size,
                            _e5rt_tensor_desc_dtype_get_element_size,
                            _e5rt_tensor_desc_dtype_get_num_components,
                            _e5rt_tensor_desc_dtype_release,
                            _e5rt_tensor_desc_dtype_validate_spec,
                            _e5rt_tensor_desc_get_byte_offset,
                            _e5rt_tensor_desc_get_dimension_length,
                            _e5rt_tensor_desc_get_dimension_stride,
                            _e5rt_tensor_desc_get_num_elements,
                            _e5rt_tensor_desc_get_rank,
                            _e5rt_tensor_desc_get_shape,
                            _e5rt_tensor_desc_get_size,
                            _e5rt_tensor_desc_get_strides,
                            _e5rt_tensor_desc_has_known_shape,
                            _e5rt_tensor_desc_release,
                            _e5rt_tensor_desc_retain_dtype,
                            _e5rt_tensor_utils_are_tensors_equal,
                            _e5rt_tensor_utils_cast_from_fp16_to_fp32,
                            _e5rt_tensor_utils_cast_from_fp32_to_fp16,
                            _e5rt_tensor_utils_copy_tensor,
                            _e5rt_tensor_utils_dequantize_from_s8_to_fp32,
                            _e5rt_tensor_utils_dequantize_from_u8_to_fp32,
                            _e5rt_tensor_utils_get_fp16_element,
                            _e5rt_tensor_utils_get_fp32_element,
                            _e5rt_tensor_utils_get_s8_element,
                            _e5rt_tensor_utils_get_u8_element,
                            _e5rt_tensor_utils_quantize_from_fp32_to_u8,
                            _e5rt_tensor_utils_set_fp16_element,
                            _e5rt_tensor_utils_set_fp32_element,
                            _e5rt_tensor_utils_set_s8_element,
                            _e5rt_tensor_utils_set_u8_element ]
    objc-classes:         [ _TtC18E5RTComputeRuntime10AneIOArray,
                            _TtC18E5RTComputeRuntime15AneModelWrapper,
                            _TtC18E5RTComputeRuntime19ANEExclaveInterface ]
    weak-def-symbols:     [ __ZN4E5RT14ExecuteOptions20executiontIdentifierE,
                            __ZN4E5RT14ExecuteOptions20setResourceTelemetryE,
                            __ZN4E5RT17E5CompilerOptions14milEntryPointsE,
                            __ZN4E5RT17E5CompilerOptions15enableProfilingE,
                            __ZN4E5RT17E5CompilerOptions18forceRecompilationE,
                            __ZN4E5RT17E5CompilerOptions19forceFetchFromCacheE,
                            __ZN4E5RT17E5CompilerOptions20forceClassicAotOldHwE,
                            __ZN4E5RT17E5CompilerOptions20preferredCpuBackendsE,
                            __ZN4E5RT17E5CompilerOptions21createProtectedAssetsE,
                            __ZN4E5RT17E5CompilerOptions21enableMPSGraphPackageE,
                            __ZN4E5RT17E5CompilerOptions24customAneCompilerOptionsE,
                            __ZN4E5RT17E5CompilerOptions25computeDeviceTypesAllowedE,
                            __ZN4E5RT17E5CompilerOptions28experimentalMoveReadStateOpsE,
                            __ZN4E5RT17E5CompilerOptions28experimentalShrinkQuantGroupE,
                            __ZN4E5RT17E5CompilerOptions35enableReshapeWithMinimalAllocationsE,
                            __ZN4E5RT17E5CompilerOptions37experimentalDisableDataDependentShapeE,
                            __ZN4E5RT17E5CompilerOptions37experimentalMatchE5MinimalCpuPatternsE,
                            __ZN4E5RT17E5CompilerOptions44experimentalEnableDefaultFunctionForRangeDimE,
                            __ZN4E5RT17E5CompilerOptions46experimentalMatchE5MinimalCpuPatternsForStatesE,
                            __ZN4E5RT17E5CompilerOptions51experimentalDisableCompileTimeMPSGraphTypeInferenceE,
                            __ZN4E5RT17E5CompilerOptions9segmenterE,
                            __ZN4E5RT23E5CompilerConfigOptions19bundleCacheLocationE,
                            __ZN4E5RT23E5CompilerConfigOptions24bundleCacheAPFSPurgeableE,
                            __ZN4E5RT28ExecutionStreamConfigOptions12skipIOFencesE,
                            __ZN4E5RT28ExecutionStreamConfigOptions27enableLowLatencyAsyncEventsE,
                            __ZN4E5RT28ExecutionStreamConfigOptions29enableConcurrentSyncExecutionE,
                            __ZN4E5RT37ExecutionStreamOperationConfigOptions18prewireModelMemoryE ]
...
